
Optional file vector_offset_init.o not found
Archive member included to satisfy reference by file (symbol)

/opt/microchip/xc32/v4.35/bin/bin/../../lib/gcc/pic32mx/8.3.1/fpu64/libgcc.a(_udivdi3.o)
                              build/default/production/_ext/101884895/sys_time.o (__udivdi3)
/opt/microchip/xc32/v4.35/bin/bin/../../lib/gcc/pic32mx/8.3.1/../../../../pic32mx/lib/fpu64/libpic32.a(memcmp.o)
                              build/default/production/_ext/1954180691/wdrv_winc.o (memcmp)
/opt/microchip/xc32/v4.35/bin/bin/../../lib/gcc/pic32mx/8.3.1/../../../../pic32mx/lib/fpu64/libpic32.a(memcpy.o)
                              build/default/production/_ext/404212886/queue.o (memcpy)
/opt/microchip/xc32/v4.35/bin/bin/../../lib/gcc/pic32mx/8.3.1/../../../../pic32mx/lib/fpu64/libpic32.a(memset.o)
                              build/default/production/_ext/101884895/sys_time.o (memset)
/opt/microchip/xc32/v4.35/bin/bin/../../lib/gcc/pic32mx/8.3.1/../../../../pic32mx/lib/fpu64/libpic32.a(strlen.o)
                              build/default/production/_ext/1832805299/sys_console.o (strlen)
/opt/microchip/xc32/v4.35/bin/bin/../../lib/gcc/pic32mx/8.3.1/../../../../pic32mx/lib/fpu64/libpic32.a(default-on-reset.o)
                              /tmp/ccyN9zno.o (_on_reset)
/opt/microchip/xc32/v4.35/bin/bin/../../lib/gcc/pic32mx/8.3.1/../../../../pic32mx/lib/fpu64/libpic32.a(default-on-bootstrap.o)
                              /tmp/ccyN9zno.o (_on_bootstrap)
/opt/microchip/xc32/v4.35/bin/bin/../../lib/gcc/pic32mx/8.3.1/../../../../pic32mx/lib/fpu64/libpic32.a(default-nmi-handler.o)
                              /tmp/ccyN9zno.o (_nmi_handler)
/opt/microchip/xc32/v4.35/bin/bin/../../lib/gcc/pic32mx/8.3.1/../../../../pic32mx/lib/fpu64/libpic32.a(pic32_data_init_core.o)
                              /tmp/ccyN9zno.o (__pic32_data_init)
/opt/microchip/xc32/v4.35/bin/bin/../../lib/gcc/pic32mx/8.3.1/../../../../pic32mx/lib/fpu64/libpic32.a(pic32_init_cache.o)
                              /tmp/ccyN9zno.o (__pic32_init_cache)
/opt/microchip/xc32/v4.35/bin/bin/../../lib/gcc/pic32mx/8.3.1/../../../../pic32mx/lib/fpu64/libpic32.a(pic32_init_tlb_ebi_sqi.o)
                              /tmp/ccyN9zno.o (__pic32_tlb_init_ebi_sqi)
/opt/microchip/xc32/v4.35/bin/bin/../../lib/gcc/pic32mx/8.3.1/../../../../pic32mx/lib/fpu64/libpic32.a(general-exception.o)
                              /tmp/ccyN9zno.o (_general_exception_context)
/opt/microchip/xc32/v4.35/bin/bin/../../lib/gcc/pic32mx/8.3.1/../../../../pic32mx/lib/fpu64/libpic32.a(cache-err-exception.o)
                              /tmp/ccyN9zno.o (_cache_err_exception_context)
/opt/microchip/xc32/v4.35/bin/bin/../../lib/gcc/pic32mx/8.3.1/../../../../pic32mx/lib/fpu64/libpic32.a(simple-tlb-refill-exception.o)
                              /tmp/ccyN9zno.o (_simple_tlb_refill_exception_context)
/opt/microchip/xc32/v4.35/bin/bin/../../lib/gcc/pic32mx/8.3.1/../../../../pic32mx/lib/fpu64/libpic32.a(defaultinterrupt.o)
                              /tmp/ccmzy7S2.o (_DefaultInterrupt)
/opt/microchip/xc32/v4.35/bin/bin/../../lib/gcc/pic32mx/8.3.1/../../../../pic32mx/lib/fpu64/libc-musl.a(vsnprintf.o)
                              build/default/production/_ext/1832805299/sys_console.o (vsnprintf)
/opt/microchip/xc32/v4.35/bin/bin/../../lib/gcc/pic32mx/8.3.1/../../../../pic32mx/lib/fpu64/libc-musl.a(sprintf.o)
                              (sprintf)
/opt/microchip/xc32/v4.35/bin/bin/../../lib/gcc/pic32mx/8.3.1/../../../../pic32mx/lib/fpu64/libc-musl.a(vsprintf.o)
                              /opt/microchip/xc32/v4.35/bin/bin/../../lib/gcc/pic32mx/8.3.1/../../../../pic32mx/lib/fpu64/libc-musl.a(sprintf.o) (vsprintf)
/opt/microchip/xc32/v4.35/bin/bin/../../lib/gcc/pic32mx/8.3.1/../../../../pic32mx/lib/fpu64/libc-musl.a(strchr.o)
                              build/default/production/_ext/1954180691/wdrv_winc_sta.o (strchr)
/opt/microchip/xc32/v4.35/bin/bin/../../lib/gcc/pic32mx/8.3.1/../../../../pic32mx/lib/fpu64/libc-musl.a(strchrnul.o)
                              /opt/microchip/xc32/v4.35/bin/bin/../../lib/gcc/pic32mx/8.3.1/../../../../pic32mx/lib/fpu64/libc-musl.a(strchr.o) (__strchrnul)
/opt/microchip/xc32/v4.35/bin/bin/../../lib/gcc/pic32mx/8.3.1/../../../../pic32mx/lib/fpu64/libc-musl.a(strnlen.o)
                              build/default/production/_ext/1954180691/wdrv_winc.o (strnlen)
/opt/microchip/xc32/v4.35/bin/bin/../../lib/gcc/pic32mx/8.3.1/../../../../pic32mx/lib/fpu64/libc-musl.a(gmtime.o)
                              build/default/production/_ext/1954180691/wdrv_winc_systime.o (gmtime)
/opt/microchip/xc32/v4.35/bin/bin/../../lib/gcc/pic32mx/8.3.1/../../../../pic32mx/lib/fpu64/libc-musl.a(gmtime_r.o)
                              /opt/microchip/xc32/v4.35/bin/bin/../../lib/gcc/pic32mx/8.3.1/../../../../pic32mx/lib/fpu64/libc-musl.a(gmtime.o) (__gmtime_r)
/opt/microchip/xc32/v4.35/bin/bin/../../lib/gcc/pic32mx/8.3.1/../../../../pic32mx/lib/fpu64/libc-musl.a(mktime.o)
                              build/default/production/_ext/1954180691/wdrv_winc_systime.o (mktime)
/opt/microchip/xc32/v4.35/bin/bin/../../lib/gcc/pic32mx/8.3.1/../../../../pic32mx/lib/fpu64/libc-musl.a(vfprintf.o)
                              /opt/microchip/xc32/v4.35/bin/bin/../../lib/gcc/pic32mx/8.3.1/../../../../pic32mx/lib/fpu64/libc-musl.a(vsnprintf.o) (vfprintf)
/opt/microchip/xc32/v4.35/bin/bin/../../lib/gcc/pic32mx/8.3.1/../../../../pic32mx/lib/fpu64/libc-musl.a(memchr.o)
                              /opt/microchip/xc32/v4.35/bin/bin/../../lib/gcc/pic32mx/8.3.1/../../../../pic32mx/lib/fpu64/libc-musl.a(strnlen.o) (memchr)
/opt/microchip/xc32/v4.35/bin/bin/../../lib/gcc/pic32mx/8.3.1/../../../../pic32mx/lib/fpu64/libc-musl.a(__tm_to_secs.o)
                              /opt/microchip/xc32/v4.35/bin/bin/../../lib/gcc/pic32mx/8.3.1/../../../../pic32mx/lib/fpu64/libc-musl.a(mktime.o) (__tm_to_secs)
/opt/microchip/xc32/v4.35/bin/bin/../../lib/gcc/pic32mx/8.3.1/../../../../pic32mx/lib/fpu64/libc-musl.a(__year_to_secs.o)
                              /opt/microchip/xc32/v4.35/bin/bin/../../lib/gcc/pic32mx/8.3.1/../../../../pic32mx/lib/fpu64/libc-musl.a(__tm_to_secs.o) (__year_to_secs)
/opt/microchip/xc32/v4.35/bin/bin/../../lib/gcc/pic32mx/8.3.1/../../../../pic32mx/lib/fpu64/libc-musl.a(__secs_to_tm.o)
                              /opt/microchip/xc32/v4.35/bin/bin/../../lib/gcc/pic32mx/8.3.1/../../../../pic32mx/lib/fpu64/libc-musl.a(gmtime_r.o) (__secs_to_tm)
/opt/microchip/xc32/v4.35/bin/bin/../../lib/gcc/pic32mx/8.3.1/../../../../pic32mx/lib/fpu64/libc-musl.a(__io_fmt_needed.o)
                              /opt/microchip/xc32/v4.35/bin/bin/../../lib/gcc/pic32mx/8.3.1/../../../../pic32mx/lib/fpu64/libc-musl.a(vfprintf.o) (__io_fmt_needed)
/opt/microchip/xc32/v4.35/bin/bin/../../lib/gcc/pic32mx/8.3.1/../../../../pic32mx/lib/fpu64/libc-musl.a(__pop_float.o)
                              /opt/microchip/xc32/v4.35/bin/bin/../../lib/gcc/pic32mx/8.3.1/../../../../pic32mx/lib/fpu64/libc-musl.a(__io_fmt_needed.o) (__pop_float_needed)
/opt/microchip/xc32/v4.35/bin/bin/../../lib/gcc/pic32mx/8.3.1/../../../../pic32mx/lib/fpu64/libc-musl.a(__pop_int.o)
                              /opt/microchip/xc32/v4.35/bin/bin/../../lib/gcc/pic32mx/8.3.1/../../../../pic32mx/lib/fpu64/libc-musl.a(__io_fmt_needed.o) (__pop_int_needed)
/opt/microchip/xc32/v4.35/bin/bin/../../lib/gcc/pic32mx/8.3.1/../../../../pic32mx/lib/fpu64/libc-musl.a(__pop_ptr.o)
                              /opt/microchip/xc32/v4.35/bin/bin/../../lib/gcc/pic32mx/8.3.1/../../../../pic32mx/lib/fpu64/libc-musl.a(__io_fmt_needed.o) (__pop_ptr_needed)
/opt/microchip/xc32/v4.35/bin/bin/../../lib/gcc/pic32mx/8.3.1/../../../../pic32mx/lib/fpu64/libc-musl.a(__printf_core.o)
                              /opt/microchip/xc32/v4.35/bin/bin/../../lib/gcc/pic32mx/8.3.1/../../../../pic32mx/lib/fpu64/libc-musl.a(vfprintf.o) (__printf_core)
/opt/microchip/xc32/v4.35/bin/bin/../../lib/gcc/pic32mx/8.3.1/../../../../pic32mx/lib/fpu64/libc-musl.a(atoi.o)
                              /opt/microchip/xc32/v4.35/bin/bin/../../lib/gcc/pic32mx/8.3.1/../../../../pic32mx/lib/fpu64/libc-musl.a(__printf_core.o) (atoi)
/opt/microchip/xc32/v4.35/bin/bin/../../lib/gcc/pic32mx/8.3.1/../../../../pic32mx/lib/fpu64/libc-musl.a(__month_to_secs.o)
                              /opt/microchip/xc32/v4.35/bin/bin/../../lib/gcc/pic32mx/8.3.1/../../../../pic32mx/lib/fpu64/libc-musl.a(__tm_to_secs.o) (__month_to_secs)
/opt/microchip/xc32/v4.35/bin/bin/../../lib/gcc/pic32mx/8.3.1/../../../../pic32mx/lib/fpu64/libc-musl.a(tolower.o)
                              /opt/microchip/xc32/v4.35/bin/bin/../../lib/gcc/pic32mx/8.3.1/../../../../pic32mx/lib/fpu64/libc-musl.a(__printf_core.o) (tolower)
/opt/microchip/xc32/v4.35/bin/bin/../../lib/gcc/pic32mx/8.3.1/../../../../pic32mx/lib/fpu64/libc-musl.a(__fmt_a.o)
                              /opt/microchip/xc32/v4.35/bin/bin/../../lib/gcc/pic32mx/8.3.1/../../../../pic32mx/lib/fpu64/libc-musl.a(__io_fmt_needed.o) (__fmt_a_needed)
/opt/microchip/xc32/v4.35/bin/bin/../../lib/gcc/pic32mx/8.3.1/../../../../pic32mx/lib/fpu64/libc-musl.a(__fmt_d.o)
                              /opt/microchip/xc32/v4.35/bin/bin/../../lib/gcc/pic32mx/8.3.1/../../../../pic32mx/lib/fpu64/libc-musl.a(__io_fmt_needed.o) (__fmt_d_needed)
/opt/microchip/xc32/v4.35/bin/bin/../../lib/gcc/pic32mx/8.3.1/../../../../pic32mx/lib/fpu64/libc-musl.a(__fmt_fp.o)
                              /opt/microchip/xc32/v4.35/bin/bin/../../lib/gcc/pic32mx/8.3.1/../../../../pic32mx/lib/fpu64/libc-musl.a(__io_fmt_needed.o) (__fmt_f_needed)
/opt/microchip/xc32/v4.35/bin/bin/../../lib/gcc/pic32mx/8.3.1/../../../../pic32mx/lib/fpu64/libc-musl.a(__fmt_o.o)
                              /opt/microchip/xc32/v4.35/bin/bin/../../lib/gcc/pic32mx/8.3.1/../../../../pic32mx/lib/fpu64/libc-musl.a(__io_fmt_needed.o) (__fmt_o_needed)
/opt/microchip/xc32/v4.35/bin/bin/../../lib/gcc/pic32mx/8.3.1/../../../../pic32mx/lib/fpu64/libc-musl.a(__fmt_s.o)
                              /opt/microchip/xc32/v4.35/bin/bin/../../lib/gcc/pic32mx/8.3.1/../../../../pic32mx/lib/fpu64/libc-musl.a(__io_fmt_needed.o) (__fmt_s_needed)
/opt/microchip/xc32/v4.35/bin/bin/../../lib/gcc/pic32mx/8.3.1/../../../../pic32mx/lib/fpu64/libc-musl.a(__fmt_u.o)
                              /opt/microchip/xc32/v4.35/bin/bin/../../lib/gcc/pic32mx/8.3.1/../../../../pic32mx/lib/fpu64/libc-musl.a(__io_fmt_needed.o) (__fmt_u_needed)
/opt/microchip/xc32/v4.35/bin/bin/../../lib/gcc/pic32mx/8.3.1/../../../../pic32mx/lib/fpu64/libc-musl.a(__fmt_x.o)
                              /opt/microchip/xc32/v4.35/bin/bin/../../lib/gcc/pic32mx/8.3.1/../../../../pic32mx/lib/fpu64/libc-musl.a(__io_fmt_needed.o) (__fmt_x_needed)
/opt/microchip/xc32/v4.35/bin/bin/../../lib/gcc/pic32mx/8.3.1/../../../../pic32mx/lib/fpu64/libc-musl.a(strcpy.o)
                              /opt/microchip/xc32/v4.35/bin/bin/../../lib/gcc/pic32mx/8.3.1/../../../../pic32mx/lib/fpu64/libc-musl.a(__fmt_a.o) (strcpy)
/opt/microchip/xc32/v4.35/bin/bin/../../lib/gcc/pic32mx/8.3.1/../../../../pic32mx/lib/fpu64/libc-musl.a(toupper.o)
                              /opt/microchip/xc32/v4.35/bin/bin/../../lib/gcc/pic32mx/8.3.1/../../../../pic32mx/lib/fpu64/libc-musl.a(__fmt_a.o) (toupper)
/opt/microchip/xc32/v4.35/bin/bin/../../lib/gcc/pic32mx/8.3.1/../../../../pic32mx/lib/fpu64/libc-musl.a(__cvt_u.o)
                              /opt/microchip/xc32/v4.35/bin/bin/../../lib/gcc/pic32mx/8.3.1/../../../../pic32mx/lib/fpu64/libc-musl.a(__fmt_d.o) (__cvt_u)
/opt/microchip/xc32/v4.35/bin/bin/../../lib/gcc/pic32mx/8.3.1/../../../../pic32mx/lib/fpu64/libc-musl.a(stpcpy.o)
                              /opt/microchip/xc32/v4.35/bin/bin/../../lib/gcc/pic32mx/8.3.1/../../../../pic32mx/lib/fpu64/libc-musl.a(strcpy.o) (__stpcpy)
/opt/microchip/xc32/v4.35/bin/bin/../../lib/gcc/pic32mx/8.3.1/../../../../pic32mx/lib/fpu64/libm-musl.a(floor.o)
                              /opt/microchip/xc32/v4.35/bin/bin/../../lib/gcc/pic32mx/8.3.1/../../../../pic32mx/lib/fpu64/libc-musl.a(__fmt_a.o) (floor)
/opt/microchip/xc32/v4.35/bin/bin/../../lib/gcc/pic32mx/8.3.1/../../../../pic32mx/lib/fpu64/libm-musl.a(fma.o)
                              /opt/microchip/xc32/v4.35/bin/bin/../../lib/gcc/pic32mx/8.3.1/../../../../pic32mx/lib/fpu64/libc-musl.a(__fmt_fp.o) (fma)
/opt/microchip/xc32/v4.35/bin/bin/../../lib/gcc/pic32mx/8.3.1/../../../../pic32mx/lib/fpu64/libm-musl.a(scalbn.o)
                              /opt/microchip/xc32/v4.35/bin/bin/../../lib/gcc/pic32mx/8.3.1/../../../../pic32mx/lib/fpu64/libm-musl.a(fma.o) (scalbn)
/opt/microchip/xc32/v4.35/bin/bin/../../lib/gcc/pic32mx/8.3.1/fpu64/libgcc.a(_lshrdi3.o)
                              /opt/microchip/xc32/v4.35/bin/bin/../../lib/gcc/pic32mx/8.3.1/../../../../pic32mx/lib/fpu64/libm-musl.a(fma.o) (__lshrdi3)
/opt/microchip/xc32/v4.35/bin/bin/../../lib/gcc/pic32mx/8.3.1/fpu64/libgcc.a(_ashldi3.o)
                              /opt/microchip/xc32/v4.35/bin/bin/../../lib/gcc/pic32mx/8.3.1/../../../../pic32mx/lib/fpu64/libm-musl.a(fma.o) (__ashldi3)
/opt/microchip/xc32/v4.35/bin/bin/../../lib/gcc/pic32mx/8.3.1/fpu64/libgcc.a(_divdi3.o)
                              /opt/microchip/xc32/v4.35/bin/bin/../../lib/gcc/pic32mx/8.3.1/../../../../pic32mx/lib/fpu64/libc-musl.a(__secs_to_tm.o) (__divdi3)
/opt/microchip/xc32/v4.35/bin/bin/../../lib/gcc/pic32mx/8.3.1/fpu64/libgcc.a(_moddi3.o)
                              /opt/microchip/xc32/v4.35/bin/bin/../../lib/gcc/pic32mx/8.3.1/../../../../pic32mx/lib/fpu64/libc-musl.a(__year_to_secs.o) (__moddi3)
/opt/microchip/xc32/v4.35/bin/bin/../../lib/gcc/pic32mx/8.3.1/fpu64/libgcc.a(_umoddi3.o)
                              /opt/microchip/xc32/v4.35/bin/bin/../../lib/gcc/pic32mx/8.3.1/../../../../pic32mx/lib/fpu64/libc-musl.a(__year_to_secs.o) (__umoddi3)
/opt/microchip/xc32/v4.35/bin/bin/../../lib/gcc/pic32mx/8.3.1/../../../../pic32mx/lib/fpu64/libpic32.a(errno.o)
                              /opt/microchip/xc32/v4.35/bin/bin/../../lib/gcc/pic32mx/8.3.1/../../../../pic32mx/lib/fpu64/libc-musl.a(vsnprintf.o) (errno)

Optional file vector_offset_init.o not found
/opt/microchip/xc32/v4.35/bin/bin/../../lib/gcc/pic32mx/8.3.1/../../../../pic32mx/lib/fpu64/libpic32.a(pic32_data_init_clear.o)
                              (__dinit_clear_needed)
/opt/microchip/xc32/v4.35/bin/bin/../../lib/gcc/pic32mx/8.3.1/../../../../pic32mx/lib/fpu64/libpic32.a(pic32_data_init_copy.o)
                              (__dinit_copy_needed)

Microchip PIC32 Memory-Usage Report

kseg0 Program-Memory Usage
section                    address  length [bytes]      (dec)  Description
-------                 ----------  -------------------------  -----------
.simple_tlb_refill_excp 0x9d000000           0x10          16   
.rodata                 0x9d000010           0xe8         232  Read-only const 
.rodata                 0x9d0000f8            0x8           8  Read-only const 
.cache_err_excpt        0x9d000100           0x10          16   
.rodata                 0x9d000110           0x70         112  Read-only const 
.app_excpt              0x9d000180           0x10          16  General-Exception 
.rodata                 0x9d000190           0x70         112  Read-only const 
.vectors                0x9d000200         0x1d08        7432   
.text                   0x9d001f08         0x86f8       34552  App's exec code 
.text                   0x9d00a600         0x5694       22164  App's exec code 
.text                   0x9d00fc94         0x4e60       20064  App's exec code 
.text                   0x9d014af4         0x45ec       17900  App's exec code 
.text                   0x9d0190e0         0x3ff4       16372  App's exec code 
.text                   0x9d01d0d4         0x36b0       14000  App's exec code 
.text                   0x9d020784         0x3460       13408  App's exec code 
.text                   0x9d023be4         0x2ed4       11988  App's exec code 
.text                   0x9d026ab8         0x256c        9580  App's exec code 
.text                   0x9d029024         0x2160        8544  App's exec code 
.text                   0x9d02b184         0x1f18        7960  App's exec code 
.text                   0x9d02d09c         0x1a24        6692  App's exec code 
.text                   0x9d02eac0         0x1900        6400  App's exec code 
.text                   0x9d0303c0         0x186c        6252  App's exec code 
.text                   0x9d031c2c         0x17c0        6080  App's exec code 
.text                   0x9d0333ec         0x1560        5472  App's exec code 
.text                   0x9d03494c         0x14c0        5312  App's exec code 
.text                   0x9d035e0c         0x12cc        4812  App's exec code 
.text                   0x9d0370d8         0x1170        4464  App's exec code 
.text                   0x9d038248          0x764        1892  App's exec code 
.rodata                 0x9d0389ac          0x754        1876  Read-only const 
.text                   0x9d039100          0xe64        3684  App's exec code 
.text                   0x9d039f64          0x700        1792  App's exec code 
.text.__fmt_fp          0x9d03a664          0x6cc        1740   
.dinit                  0x9d03ad30          0x680        1664   
.text.fma               0x9d03b3b0          0x678        1656   
.text                   0x9d03ba28          0x65c        1628  App's exec code 
.text.__fmt_a           0x9d03c084          0x624        1572   
.text                   0x9d03c6a8          0x5c4        1476  App's exec code 
.text.__printf_core     0x9d03cc6c          0x5a4        1444   
.text                   0x9d03d210          0xac4        2756  App's exec code 
.text                   0x9d03dcd4          0xa9c        2716  App's exec code 
.text                   0x9d03e770          0x984        2436  App's exec code 
.rodata                 0x9d03f0f4          0x450        1104  Read-only const 
.text                   0x9d03f544          0x878        2168  App's exec code 
.text                   0x9d03fdbc          0x7ec        2028  App's exec code 
.text                   0x9d0405a8          0x78c        1932  App's exec code 
.text                   0x9d040d34          0x774        1908  App's exec code 
.text                   0x9d0414a8          0x738        1848  App's exec code 
.text                   0x9d041be0          0x6ac        1708  App's exec code 
.text                   0x9d04228c          0x348         840  App's exec code 
.text.__secs_to_tm      0x9d0425d4          0x320         800   
.text                   0x9d0428f4          0x5a8        1448  App's exec code 
.text                   0x9d042e9c          0x540        1344  App's exec code 
.text                   0x9d0433dc          0x508        1288  App's exec code 
.rodata                 0x9d0438e4          0x270         624  Read-only const 
.text                   0x9d043b54          0x484        1156  App's exec code 
.text                   0x9d043fd8          0x21c         540  App's exec code 
.text.__fmt_x           0x9d0441f4          0x200         512   
.text                   0x9d0443f4          0x1cc         460  App's exec code 
.text.__year_to_secs    0x9d0445c0          0x1c8         456   
.rodata                 0x9d044788          0x1b8         440  Read-only const 
.text                   0x9d044940          0x348         840  App's exec code 
.text.__pop_int         0x9d044c88          0x188         392   
.rodata                 0x9d044e10          0x184         388  Read-only const 
.text                   0x9d044f94          0x2e8         744  App's exec code 
.text                   0x9d04527c          0x2d0         720  App's exec code 
.text                   0x9d04554c          0x150         336  App's exec code 
.text.__fmt_d           0x9d04569c          0x150         336   
.text                   0x9d0457ec          0x290         656  App's exec code 
.text.__cvt_u           0x9d045a7c          0x13c         316   
.text                   0x9d045bb8          0x248         584  App's exec code 
.text                   0x9d045e00          0x120         288  App's exec code 
.rodata                 0x9d045f20          0x214         532  Read-only const 
.text.__tm_to_secs      0x9d046134          0x108         264   
.text                   0x9d04623c          0x104         260  App's exec code 
.rodata                 0x9d046340          0x104         260  Read-only const 
.text.__pad             0x9d046444          0x100         256   
.rodata                 0x9d046544           0xfc         252  Read-only const 
.text                   0x9d046640           0xf8         248  App's exec code 
.text.__fmt_o           0x9d046738           0xf4         244   
.text.__pop_ptr         0x9d04682c           0xe4         228   
.text                   0x9d046910           0xe0         224  App's exec code 
.text.general_exception 0x9d0469f0           0xdc         220   
.text._cache_err_except 0x9d046acc           0xd8         216   
.text.simple_tlb_refill 0x9d046ba4           0xd8         216   
.text                   0x9d046c7c          0x180         384  App's exec code 
.text.__strchrnul       0x9d046dfc           0xc0         192   
.tlb.__pic32_tlb_init_e 0x9d046ebc           0xbc         188   
.text.vsnprintf         0x9d046f78           0xbc         188   
.text.__fmt_u           0x9d047034           0xbc         188   
.text.floor             0x9d0470f0           0xb4         180   
.text                   0x9d0471a4           0xa8         168  App's exec code 
.text.__fmt_s           0x9d04724c           0xa4         164   
.text                   0x9d0472f0           0x98         152  App's exec code 
.rodata                 0x9d047388           0x8c         140  Read-only const 
.text.normalize         0x9d047414           0x8c         140   
.text.scalbn            0x9d0474a0           0x8c         140   
.text.mktime            0x9d04752c           0x84         132   
.text                   0x9d0475b0           0x7c         124  App's exec code 
.text.atoi              0x9d04762c           0x7c         124   
.rodata                 0x9d0476a8           0x70         112  Read-only const 
.text.a_clz_64          0x9d047718           0x6c         108   
.text                   0x9d047784           0x60          96  App's exec code 
.text.__gmtime_r        0x9d0477e4           0x60          96   
.text.__string_out      0x9d047844           0x5c          92   
.text.__fmt_state       0x9d0478a0           0x58          88   
.text.main_entry        0x9d0478f8           0x54          84   
.text                   0x9d04794c           0x50          80  App's exec code 
.text.__pop_float       0x9d04799c           0x48          72   
.text                   0x9d0479e4           0x44          68  App's exec code 
.text.strnlen           0x9d047a28           0x44          68   
.rodata                 0x9d047a6c           0x40          64  Read-only const 
.text.memchr            0x9d047aac           0x40          64   
.text.vfprintf          0x9d047aec           0x3c          60   
.text                   0x9d047b28           0x78         120  App's exec code 
.rodata                 0x9d047ba0           0x38          56  Read-only const 
.text.strchr            0x9d047bd8           0x34          52   
.text.__month_to_secs   0x9d047c0c           0x34          52   
.rodata                 0x9d047c40           0x60          96  Read-only const 
.rodata                 0x9d047ca0           0x5c          92  Read-only const 
.rodata                 0x9d047cfc           0x28          40  Read-only const 
.text.sprintf           0x9d047d24           0x28          40   
.text.vsprintf          0x9d047d4c           0x28          40   
.rodata                 0x9d047d74            0x4           4  Read-only const 
.rodata.cst8            0x9d047d78           0x28          40   
.text.strcpy            0x9d047da0           0x28          40   
.text.stpcpy            0x9d047dc8           0x28          40   
.text.gmtime            0x9d047df0           0x20          32   
.rodata.cst8            0x9d047e10           0x40          64   
.text                   0x9d047e50           0x20          32  App's exec code 
.rodata                 0x9d047e70           0x1c          28  Read-only const 
.text.tolower           0x9d047e8c           0x1c          28   
.text.__tolower_l       0x9d047ea8           0x1c          28   
.text.toupper           0x9d047ec4           0x1c          28   
.text.__toupper_l       0x9d047ee0           0x1c          28   
.rodata.str1.4          0x9d047efc            0x4           4   
.MIPS.abiflags          0x9d047f00           0x18          24   
.text                   0x9d047f18           0x18          24  App's exec code 
.rodata                 0x9d047f30           0x18          24  Read-only const 
.rodata.cst8            0x9d047f48           0x18          24   
.text                   0x9d047f60           0x18          24  App's exec code 
.rodata                 0x9d047f78           0x24          36  Read-only const 
.rodata.str1.4          0x9d047f9c           0x20          32   
.rodata.str1.4          0x9d047fbc            0x4           4   
.rodata.cst8            0x9d047fc0           0x10          16   
.rodata                 0x9d047fd0           0x18          24  Read-only const 
.rodata.str1.4          0x9d047fe8            0xc          12   
.rodata                 0x9d047ff4            0x8           8  Read-only const 
.text._on_reset         0x9d047ffc            0x8           8   
.text._on_bootstrap     0x9d048004            0x8           8   
.text.__dummy_fmt3      0x9d04800c            0x8           8   
.text.__dummy_fmt4      0x9d048014            0x8           8   
.text.__dummy_fmts      0x9d04801c            0x8           8   
      Total kseg0_program_mem used  :     0x48024      294948  14.1% of 0x200000

kseg0 Boot-Memory Usage
section                    address  length [bytes]      (dec)  Description
-------                 ----------  -------------------------  -----------
         Total kseg0_boot_mem used  :           0           0  

kseg1 Boot-Memory Usage
section                    address  length [bytes]      (dec)  Description
-------                 ----------  -------------------------  -----------
.reset                  0xbfc00000          0x1c4         452  Reset handler 
.bev_excpt              0xbfc00380           0x10          16  BEV-Exception 
         Total kseg1_boot_mem used  :       0x1d4         468  40.6% of 0x480
        --------------------------------------------------------------------------
         Total Program Memory used  :     0x481f8      295416  14.1% of 0x200480
        --------------------------------------------------------------------------


Data-Memory Usage
section                    address  length [bytes]      (dec)  Description
-------                 ----------  -------------------------  -----------
.sdata                  0x80000000           0x64         100  Small init data 
.sbss                   0x80000064          0x138         312  Small uninit data 
.data                   0x8000019c            0x4           4  Initialized data 
.data                   0x80000200           0x12          18  Initialized data 
.bss                    0x80000214         0x6d60       28000  Uninitialized data 
.bss.errno              0x80006f74            0x4           4   
.bss                    0x80006f78          0xc4c        3148  Uninitialized data 
.bss                    0x80007bc4          0x25c         604  Uninitialized data 
.bss                    0x80007e20          0x114         276  Uninitialized data 
.bss                    0x80007f38          0x1c8         456  Uninitialized data 
.bss                    0x80008100          0x188         392  Uninitialized data 
.bss                    0x80008288          0x150         336  Uninitialized data 
.bss                    0x800083d8           0xf4         244  Uninitialized data 
.bss                    0x800084cc           0x8c         140  Uninitialized data 
.bss                    0x80008558           0x4c          76  Uninitialized data 
.bss                    0x800085a4           0x34          52  Uninitialized data 
.bss                    0x800085d8           0x1c          28  Uninitialized data 
.bss                    0x800085f4            0xc          12  Uninitialized data 
.COHERENTBSS$           0xa00001a0           0x5c          92   
         Total kseg0/kseg1 data_mem used  :      0x85f6       34294  6.5% of 0x80000
        --------------------------------------------------------------------------
            Total Data Memory used  :      0x85f6       34294  6.5% of 0x80000
        --------------------------------------------------------------------------


Dynamic Data-Memory Reservation
section                    address  length [bytes]      (dec)  Description
-------                 ----------  -------------------------  -----------
heap                    0x80008608          0x200         512  Reserved for heap 
stack                   0x80008820        0x777d8      489432  Reserved for stack 

        --------------------------------------------------------------------------

Note: Microchip PIC32 Memory-Usage Report By Module might not be accurate when used in conjunction with LTO!
Microchip PIC32 Memory-Usage Report By Module

        text        data         bss         dec         hex    basename                         filename
--------------------------------------------------------------------------------
         408           0       28008       28416        6f00    heap_1.o                     build/default/production/_ext/1665200909/heap_1.o
       19028           4          38       19070        4a7e    m2m_wifi.o                   build/default/production/_ext/1667573777/m2m_wifi.o
       16156           4         260       16420        4024    FreeRTOS_tasks.o             build/default/production/_ext/404212886/FreeRTOS_tasks.o
       11556           0         124       11680        2da0    gapc_task.o                  build/default/production/_ext/651226651/gapc_task.o
       10748           0         276       11024        2b10    wdrv_winc.o                  build/default/production/_ext/1954180691/wdrv_winc.o
       10684           0         218       10902        2a96    socket.o                     build/default/production/_ext/2094051164/socket.o
        9644           0           0        9644        25ac    gattc_task.o                 build/default/production/_ext/651226651/gattc_task.o
        9184           2         244        9430        24d6    sys_time.o                   build/default/production/_ext/101884895/sys_time.o
        8984           0          92        9076        2374    drv_spi.o                    build/default/production/_ext/2070931557/drv_spi.o
        8900           0           8        8908        22cc    nmspi.o                      build/default/production/_ext/1667573777/nmspi.o
        8192          34           0        8226        2022    gatt_server.o                build/default/production/_ext/651226651/gatt_server.o
        8180           0           0        8180        1ff4    gapm_task.o                  build/default/production/_ext/651226651/gapm_task.o
        8080          18          41        8139        1fcb    m2m_hif.o                    build/default/production/_ext/1667573777/m2m_hif.o
        7040           0           4        7044        1b84    nmasic.o                     build/default/production/_ext/1667573777/nmasic.o
        6716           0         188        6904        1af8    gap.o                        build/default/production/_ext/651226651/gap.o
        6708           0           0        6708        1a34    queue.o                      build/default/production/_ext/404212886/queue.o
        6204           0           0        6204        183c    interrupts_a.o               build/default/production/_ext/1171490990/interrupts_a.o
        5336           0         324        5660        161c    plib_uart2.o                 build/default/production/_ext/1865657120/plib_uart2.o
        5092           0           4        5096        13e8    spi_flash.o                  build/default/production/_ext/1908349716/spi_flash.o
        4600           0           0        4600        11f8    stream_buffer.o              build/default/production/_ext/404212886/stream_buffer.o
        4320           0         148        4468        1174    plib_dmac.o                  build/default/production/_ext/1865161661/plib_dmac.o
        4224           0           0        4224        1080    dbg_task.o                   build/default/production/_ext/651226651/dbg_task.o
        3980           0          40        4020         fb4    plib_spi1_master.o           build/default/production/_ext/298189674/plib_spi1_master.o
        3980           0           0        3980         f8c    htpt_task.o                  build/default/production/_ext/651226651/htpt_task.o
        3648           0           4        3652         e44    nmdrv.o                      build/default/production/_ext/1667573777/nmdrv.o
        3628           4           8        3640         e38    m2m_ssl.o                    build/default/production/_ext/1667573777/m2m_ssl.o
        3324           0         140        3464         d88    event.o                      build/default/production/_ext/651226651/event.o
        3120           0         220        3340         d0c    sys_console.o                build/default/production/_ext/1832805299/sys_console.o
        3256           0           0        3256         cb8    wdrv_winc_ssl.o              build/default/production/_ext/1954180691/wdrv_winc_ssl.o
        3164           0           0        3164         c5c    m2m_flash.o                  build/default/production/_ext/1667573777/m2m_flash.o
        3132           0           0        3132         c3c    wdrv_winc_socket.o           build/default/production/_ext/1954180691/wdrv_winc_socket.o
        3028           0           0        3028         bd4    wifiprov_task.o              build/default/production/_ext/651226651/wifiprov_task.o
         960           4        2052        3016         bc8    port.o                       build/default/production/_ext/951553246/port.o
        2772           0           0        2772         ad4    wdrv_winc_authctx.o          build/default/production/_ext/1954180691/wdrv_winc_authctx.o
        2740           0           0        2740         ab4    wdrv_winc_sta.o              build/default/production/_ext/1954180691/wdrv_winc_sta.o
        2724           0           0        2724         aa4    gattm_task.o                 build/default/production/_ext/651226651/gattm_task.o
        2588           0           0        2588         a1c    wdrv_winc_bssfind.o          build/default/production/_ext/1954180691/wdrv_winc_bssfind.o
        2504           0           0        2504         9c8    wdrv_winc_nvm.o              build/default/production/_ext/1954180691/wdrv_winc_nvm.o
        2420           0           0        2420         974    gatt_client.o                build/default/production/_ext/651226651/gatt_client.o
        2292           8          12        2312         908    plib_gpio.o                  build/default/production/_ext/1865254177/plib_gpio.o
        2172           0           0        2172         87c    event_groups.o               build/default/production/_ext/404212886/event_groups.o
         840           0        1132        1972         7b4    interface.o                  build/default/production/_ext/651226651/interface.o
        1940           0          12        1952         7a0    sys_console_uart.o           build/default/production/_ext/1832805299/sys_console_uart.o
        1940           0           0        1940         794    __printf_core.o              libc-musl.a
        1936           0           0        1936         790    fma.o                        libm-musl.a
        1852           0           0        1852         73c    wdrv_winc_softap.o           build/default/production/_ext/1954180691/wdrv_winc_softap.o
        1832           0           0        1832         728    wdrv_winc_enterprise.o       build/default/production/_ext/1954180691/wdrv_winc_enterprise.o
        1792           0           0        1792         700    osal_freertos.o              build/default/production/_ext/1529399856/osal_freertos.o
        1788           0           0        1788         6fc    __fmt_fp.o                   libc-musl.a
        1664           0           0        1664         680    data_init                    data_init
        1632           0           5        1637         665    example.o                    build/default/production/example.o
        1628           0           0        1628         65c    __fmt_a.o                    libc-musl.a
        1628           0           0        1628         65c    security.o                   build/default/production/_ext/651226651/security.o
        1476           0           0        1476         5c4    wdrv_winc_systime.o          build/default/production/_ext/1954180691/wdrv_winc_systime.o
        1388           0          33        1421         58d    wdrv_winc_spi.o              build/default/production/_ext/1697030576/wdrv_winc_spi.o
        1416           0           0        1416         588    port_asm.o                   build/default/production/_ext/951553246/port_asm.o
        1384           0           0        1384         568    wdrv_winc_wps.o              build/default/production/_ext/1954180691/wdrv_winc_wps.o
        1376           0           0        1376         560    wdrv_winc_assoc.o            build/default/production/_ext/1954180691/wdrv_winc_assoc.o
        1252           2           0        1254         4e6    nmbus.o                      build/default/production/_ext/1667573777/nmbus.o
        1184           0           0        1184         4a0    wdrv_winc_bssctx.o           build/default/production/_ext/1954180691/wdrv_winc_bssctx.o
        1052           0          96        1148         47c    sys_dma.o                    build/default/production/_ext/14461671/sys_dma.o
        1092           0           0        1092         444    _divdi3.o                    libgcc.a
        1076           0           0        1076         434    _moddi3.o                    libgcc.a
        1008           0           4        1012         3f4    m2m_ota.o                    build/default/production/_ext/1667573777/m2m_ota.o
         976           0           0         976         3d0    wdrv_winc_custie.o           build/default/production/_ext/1954180691/wdrv_winc_custie.o
         976           0           0         976         3d0    plib_evic.o                  build/default/production/_ext/1865200349/plib_evic.o
         956           0           0         956         3bc    _udivdi3.o                   libgcc.a
         952           0           0         952         3b8    _umoddi3.o                   libgcc.a
         636           0         280         916         394    initialization.o             build/default/production/_ext/1171490990/initialization.o
         896           0           1         897         381    wdrv_winc_ble.o              build/default/production/_ext/1954180691/wdrv_winc_ble.o
         856           0           8         864         360    plib_coretimer.o             build/default/production/_ext/1249264884/plib_coretimer.o
         852           0           0         852         354    m2m_periph.o                 build/default/production/_ext/1667573777/m2m_periph.o
         812           0           0         812         32c    __secs_to_tm.o               libc-musl.a
           0         780           0         780         30c    ccNcFTSD.o                   /tmp/ccNcFTSD.o
         744           0          28         772         304    platform.o                   build/default/production/_ext/1306418660/platform.o
         704           0           0         704         2c0    wdrv_winc_powersave.o        build/default/production/_ext/1954180691/wdrv_winc_powersave.o
         700           0           0         700         2bc    list.o                       build/default/production/_ext/404212886/list.o
         644           0           8         652         28c    htpt.o                       build/default/production/_ext/651226651/htpt.o
         644           0           8         652         28c    plib_tmr8.o                  build/default/production/_ext/60181895/plib_tmr8.o
         644           0           8         652         28c    plib_tmr9.o                  build/default/production/_ext/60181895/plib_tmr9.o
         600           0           0         600         258    ccyN9zno.o                   /tmp/ccyN9zno.o
         584           0           0         584         248    nm_common.o                  build/default/production/_ext/1636284884/nm_common.o
         536          36           0         572         23c    pic32_init_cache.o           libpic32.a
         572           0           0         572         23c    interrupts.o                 build/default/production/_ext/1171490990/interrupts.o
         540           0           0         540         21c    inet_addr.o                  build/default/production/_ext/2094051164/inet_addr.o
         512           0           0         512         200    __fmt_x.o                    libc-musl.a
         460           0           0         460         1cc    inet_ntop.o                  build/default/production/_ext/2094051164/inet_ntop.o
         456           0           0         456         1c8    __year_to_secs.o             libc-musl.a
         432           0           0         432         1b0    wdrv_winc_httpprovctx.o      build/default/production/_ext/1954180691/wdrv_winc_httpprovctx.o
         392           0           0         392         188    __pop_int.o                  libc-musl.a
         364           0           0         364         16c    sys_int.o                    build/default/production/_ext/1881668453/sys_int.o
         360           0           0         360         168    strlen.o                     libpic32.a
         360           0           0         360         168    memcpy.o                     libpic32.a
         344           0          12         356         164    app.o                        build/default/production/_ext/1360937237/app.o
         336           0           0         336         150    __fmt_d.o                    libc-musl.a
         336           0           0         336         150    error.o                      build/default/production/_ext/651226651/error.o
         324           0          12         336         150    sys_debug.o                  build/default/production/_ext/944882569/sys_debug.o
         332           0           0         332         14c    main.o                       build/default/production/_ext/1360937237/main.o
         320           0           4         324         144    tasks.o                      build/default/production/_ext/1171490990/tasks.o
         316           0           0         316         13c    __cvt_u.o                    libc-musl.a
         292           0           0         292         124    freertos_hooks.o             build/default/production/_ext/1171490990/freertos_hooks.o
         264           0           0         264         108    __tm_to_secs.o               libc-musl.a
         248           0           0         248          f8    wdrv_winc_eint.o             build/default/production/_ext/1068697685/wdrv_winc_eint.o
         244           0           0         244          f4    __fmt_o.o                    libc-musl.a
         228           0           0         228          e4    __pop_ptr.o                  libc-musl.a
         224           0           0         224          e0    plib_clk.o                   build/default/production/_ext/60165520/plib_clk.o
         220           0           0         220          dc    general-exception.o          libpic32.a
         216           0           0         216          d8    simple-tlb-refill-exception.olibpic32.a
         216           0           0         216          d8    cache-err-exception.o        libpic32.a
         204           0           0         204          cc    floor.o                      libm-musl.a
         192           0           8         200          c8    exceptions.o                 build/default/production/_ext/1171490990/exceptions.o
         192           0           0         192          c0    strchrnul.o                  libc-musl.a
         192           0           0         192          c0    wdrv_winc_gpio.o             build/default/production/_ext/1068697685/wdrv_winc_gpio.o
         188           0           0         188          bc    __fmt_u.o                    libc-musl.a
         188           0           0         188          bc    vsnprintf.o                  libc-musl.a
         188           0           0         188          bc    pic32_init_tlb_ebi_sqi.o     libpic32.a
         168           0           0         168          a8    memset.o                     libpic32.a
         164           0           0         164          a4    __fmt_s.o                    libc-musl.a
         156           0           0         156          9c    scalbn.o                     libm-musl.a
         152           0           0         152          98    memcmp.o                     libpic32.a
         144           0           0         144          90    pic32_data_init_core.o       libpic32.a
         136           0           0         136          88    mktime.o                     libc-musl.a
         124           0           0         124          7c    atoi.o                       libc-musl.a
         100           0           0         100          64    __month_to_secs.o            libc-musl.a
         100           0           0         100          64    gmtime_r.o                   libc-musl.a
          96           0           0          96          60    xc32_monitor.o               build/default/production/_ext/163028504/xc32_monitor.o
          80           0           0          80          50    wdrv_winc_osal.o             build/default/production/_ext/2018374705/wdrv_winc_osal.o
          32           0          44          76          4c    gmtime.o                     libc-musl.a
          72           0           0          72          48    __pop_float.o                libc-musl.a
          72           0           0          72          48    defaultinterrupt.o           libpic32.a
          68           0           0          68          44    strnlen.o                    libc-musl.a
          68           0           0          68          44    pic32_software_reset.o       /opt/microchip/xc32/v4.35/bin/bin/../../lib/gcc/pic32mx/8.3.1/../../../../pic32mx/lib/fpu64/pic32_software_reset.o
          68           0           0          68          44    debug-exception-return.o     /opt/microchip/xc32/v4.35/bin/bin/../../lib/gcc/pic32mx/8.3.1/../../../../pic32mx/lib/fpu64/debug-exception-return.o
          64           0           0          64          40    memchr.o                     libc-musl.a
          60           0           0          60          3c    _ashldi3.o                   libgcc.a
          60           0           0          60          3c    _lshrdi3.o                   libgcc.a
          60           0           0          60          3c    vfprintf.o                   libc-musl.a
          56           0           0          56          38    toupper.o                    libc-musl.a
          56           0           0          56          38    tolower.o                    libc-musl.a
          52           0           0          52          34    strchr.o                     libc-musl.a
          40           0           0          40          28    stpcpy.o                     libc-musl.a
          40           0           0          40          28    strcpy.o                     libc-musl.a
          40           0           0          40          28    vsprintf.o                   libc-musl.a
          40           0           0          40          28    sprintf.o                    libc-musl.a
          32           0           0          32          20    pic32_data_init_copy.o       libpic32.a
          24           0           0          24          18    pic32_data_init_clear.o      libpic32.a
          24           0           0          24          18    default-nmi-handler.o        libpic32.a
           8           0           0           8           8    default-on-bootstrap.o       libpic32.a
           8           0           0           8           8    default-on-reset.o           libpic32.a
           0           0           4           4           4    errno.o                      libpic32.a
          96           0           0          96          60    misc                         misc
           0           0           0          18          12    padding                      padding
--------------------------------------------------------------------------------
      296116         896       34160      331190       50db6    dist/default/production/curiositybasic.X.production.elf


Discarded input sections

 .xc_stack_usage.hdr
                0x0000000000000000        0xe /opt/microchip/xc32/v4.35/bin/bin/../../lib/gcc/pic32mx/8.3.1/../../../../pic32mx/lib/fpu64/debug-exception-return.o
 .xc_stack_usage
                0x0000000000000000       0x1d /opt/microchip/xc32/v4.35/bin/bin/../../lib/gcc/pic32mx/8.3.1/../../../../pic32mx/lib/fpu64/debug-exception-return.o
 .reginfo       0x0000000000000000       0x18 build/default/production/_ext/1529399856/osal_freertos.o
 .MIPS.abiflags
                0x0000000000000000       0x18 build/default/production/_ext/1529399856/osal_freertos.o
 .reginfo       0x0000000000000000       0x18 build/default/production/_ext/60165520/plib_clk.o
 .MIPS.abiflags
                0x0000000000000000       0x18 build/default/production/_ext/60165520/plib_clk.o
 .reginfo       0x0000000000000000       0x18 build/default/production/_ext/1249264884/plib_coretimer.o
 .MIPS.abiflags
                0x0000000000000000       0x18 build/default/production/_ext/1249264884/plib_coretimer.o
 .reginfo       0x0000000000000000       0x18 build/default/production/_ext/1865200349/plib_evic.o
 .MIPS.abiflags
                0x0000000000000000       0x18 build/default/production/_ext/1865200349/plib_evic.o
 .reginfo       0x0000000000000000       0x18 build/default/production/_ext/1865254177/plib_gpio.o
 .MIPS.abiflags
                0x0000000000000000       0x18 build/default/production/_ext/1865254177/plib_gpio.o
 .reginfo       0x0000000000000000       0x18 build/default/production/_ext/60181895/plib_tmr9.o
 .MIPS.abiflags
                0x0000000000000000       0x18 build/default/production/_ext/60181895/plib_tmr9.o
 .reginfo       0x0000000000000000       0x18 build/default/production/_ext/60181895/plib_tmr8.o
 .MIPS.abiflags
                0x0000000000000000       0x18 build/default/production/_ext/60181895/plib_tmr8.o
 .reginfo       0x0000000000000000       0x18 build/default/production/_ext/1865657120/plib_uart2.o
 .MIPS.abiflags
                0x0000000000000000       0x18 build/default/production/_ext/1865657120/plib_uart2.o
 .reginfo       0x0000000000000000       0x18 build/default/production/_ext/163028504/xc32_monitor.o
 .MIPS.abiflags
                0x0000000000000000       0x18 build/default/production/_ext/163028504/xc32_monitor.o
 .reginfo       0x0000000000000000       0x18 build/default/production/_ext/1832805299/sys_console_uart.o
 .MIPS.abiflags
                0x0000000000000000       0x18 build/default/production/_ext/1832805299/sys_console_uart.o
 .reginfo       0x0000000000000000       0x18 build/default/production/_ext/1832805299/sys_console.o
 .MIPS.abiflags
                0x0000000000000000       0x18 build/default/production/_ext/1832805299/sys_console.o
 .reginfo       0x0000000000000000       0x18 build/default/production/_ext/944882569/sys_debug.o
 .MIPS.abiflags
                0x0000000000000000       0x18 build/default/production/_ext/944882569/sys_debug.o
 .reginfo       0x0000000000000000       0x18 build/default/production/_ext/14461671/sys_dma.o
 .MIPS.abiflags
                0x0000000000000000       0x18 build/default/production/_ext/14461671/sys_dma.o
 .reginfo       0x0000000000000000       0x18 build/default/production/_ext/1881668453/sys_int.o
 .MIPS.abiflags
                0x0000000000000000       0x18 build/default/production/_ext/1881668453/sys_int.o
 .reginfo       0x0000000000000000       0x18 build/default/production/_ext/101884895/sys_time.o
 .MIPS.abiflags
                0x0000000000000000       0x18 build/default/production/_ext/101884895/sys_time.o
 .reginfo       0x0000000000000000       0x18 build/default/production/_ext/1171490990/freertos_hooks.o
 .MIPS.abiflags
                0x0000000000000000       0x18 build/default/production/_ext/1171490990/freertos_hooks.o
 .reginfo       0x0000000000000000       0x18 build/default/production/_ext/1171490990/interrupts.o
 .MIPS.abiflags
                0x0000000000000000       0x18 build/default/production/_ext/1171490990/interrupts.o
 .reginfo       0x0000000000000000       0x18 build/default/production/_ext/1171490990/tasks.o
 .MIPS.abiflags
                0x0000000000000000       0x18 build/default/production/_ext/1171490990/tasks.o
 .reginfo       0x0000000000000000       0x18 build/default/production/_ext/1171490990/initialization.o
 .MIPS.abiflags
                0x0000000000000000       0x18 build/default/production/_ext/1171490990/initialization.o
 .reginfo       0x0000000000000000       0x18 build/default/production/_ext/1171490990/interrupts_a.o
 .MIPS.abiflags
                0x0000000000000000       0x18 build/default/production/_ext/1171490990/interrupts_a.o
 .reginfo       0x0000000000000000       0x18 build/default/production/_ext/1171490990/exceptions.o
 .MIPS.abiflags
                0x0000000000000000       0x18 build/default/production/_ext/1171490990/exceptions.o
 .reginfo       0x0000000000000000       0x18 build/default/production/_ext/1665200909/heap_1.o
 .MIPS.abiflags
                0x0000000000000000       0x18 build/default/production/_ext/1665200909/heap_1.o
 .reginfo       0x0000000000000000       0x18 build/default/production/_ext/951553246/port_asm.o
 .MIPS.abiflags
                0x0000000000000000       0x18 build/default/production/_ext/951553246/port_asm.o
 .reginfo       0x0000000000000000       0x18 build/default/production/_ext/951553246/port.o
 .MIPS.abiflags
                0x0000000000000000       0x18 build/default/production/_ext/951553246/port.o
 .reginfo       0x0000000000000000       0x18 build/default/production/_ext/404212886/croutine.o
 .MIPS.abiflags
                0x0000000000000000       0x18 build/default/production/_ext/404212886/croutine.o
 .reginfo       0x0000000000000000       0x18 build/default/production/_ext/404212886/queue.o
 .MIPS.abiflags
                0x0000000000000000       0x18 build/default/production/_ext/404212886/queue.o
 .reginfo       0x0000000000000000       0x18 build/default/production/_ext/404212886/timers.o
 .MIPS.abiflags
                0x0000000000000000       0x18 build/default/production/_ext/404212886/timers.o
 .reginfo       0x0000000000000000       0x18 build/default/production/_ext/404212886/stream_buffer.o
 .MIPS.abiflags
                0x0000000000000000       0x18 build/default/production/_ext/404212886/stream_buffer.o
 .reginfo       0x0000000000000000       0x18 build/default/production/_ext/404212886/event_groups.o
 .MIPS.abiflags
                0x0000000000000000       0x18 build/default/production/_ext/404212886/event_groups.o
 .reginfo       0x0000000000000000       0x18 build/default/production/_ext/404212886/FreeRTOS_tasks.o
 .MIPS.abiflags
                0x0000000000000000       0x18 build/default/production/_ext/404212886/FreeRTOS_tasks.o
 .reginfo       0x0000000000000000       0x18 build/default/production/_ext/404212886/list.o
 .MIPS.abiflags
                0x0000000000000000       0x18 build/default/production/_ext/404212886/list.o
 .reginfo       0x0000000000000000       0x18 build/default/production/_ext/1360937237/app.o
 .MIPS.abiflags
                0x0000000000000000       0x18 build/default/production/_ext/1360937237/app.o
 .reginfo       0x0000000000000000       0x18 build/default/production/_ext/1360937237/main.o
 .MIPS.abiflags
                0x0000000000000000       0x18 build/default/production/_ext/1360937237/main.o
 .reginfo       0x0000000000000000       0x18 build/default/production/_ext/1954180691/wdrv_winc.o
 .MIPS.abiflags
                0x0000000000000000       0x18 build/default/production/_ext/1954180691/wdrv_winc.o
 .reginfo       0x0000000000000000       0x18 build/default/production/_ext/1865161661/plib_dmac.o
 .MIPS.abiflags
                0x0000000000000000       0x18 build/default/production/_ext/1865161661/plib_dmac.o
 .reginfo       0x0000000000000000       0x18 build/default/production/_ext/1954180691/wdrv_winc_nvm.o
 .MIPS.abiflags
                0x0000000000000000       0x18 build/default/production/_ext/1954180691/wdrv_winc_nvm.o
 .reginfo       0x0000000000000000       0x18 build/default/production/_ext/651226651/event.o
 .MIPS.abiflags
                0x0000000000000000       0x18 build/default/production/_ext/651226651/event.o
 .reginfo       0x0000000000000000       0x18 build/default/production/_ext/1954180691/wdrv_winc_bssctx.o
 .MIPS.abiflags
                0x0000000000000000       0x18 build/default/production/_ext/1954180691/wdrv_winc_bssctx.o
 .reginfo       0x0000000000000000       0x18 build/default/production/_ext/651226651/gatt_client.o
 .MIPS.abiflags
                0x0000000000000000       0x18 build/default/production/_ext/651226651/gatt_client.o
 .reginfo       0x0000000000000000       0x18 build/default/production/_ext/298189674/plib_spi1_master.o
 .MIPS.abiflags
                0x0000000000000000       0x18 build/default/production/_ext/298189674/plib_spi1_master.o
 .reginfo       0x0000000000000000       0x18 build/default/production/_ext/1954180691/wdrv_winc_powersave.o
 .MIPS.abiflags
                0x0000000000000000       0x18 build/default/production/_ext/1954180691/wdrv_winc_powersave.o
 .reginfo       0x0000000000000000       0x18 build/default/production/_ext/1954180691/wdrv_winc_systime.o
 .MIPS.abiflags
                0x0000000000000000       0x18 build/default/production/_ext/1954180691/wdrv_winc_systime.o
 .reginfo       0x0000000000000000       0x18 build/default/production/_ext/651226651/gattc_task.o
 .MIPS.abiflags
                0x0000000000000000       0x18 build/default/production/_ext/651226651/gattc_task.o
 .reginfo       0x0000000000000000       0x18 build/default/production/_ext/1667573777/m2m_hif.o
 .MIPS.abiflags
                0x0000000000000000       0x18 build/default/production/_ext/1667573777/m2m_hif.o
 .reginfo       0x0000000000000000       0x18 build/default/production/_ext/1667573777/m2m_periph.o
 .MIPS.abiflags
                0x0000000000000000       0x18 build/default/production/_ext/1667573777/m2m_periph.o
 .reginfo       0x0000000000000000       0x18 build/default/production/_ext/1068697685/wdrv_winc_eint.o
 .MIPS.abiflags
                0x0000000000000000       0x18 build/default/production/_ext/1068697685/wdrv_winc_eint.o
 .reginfo       0x0000000000000000       0x18 build/default/production/_ext/651226651/interface.o
 .MIPS.abiflags
                0x0000000000000000       0x18 build/default/production/_ext/651226651/interface.o
 .reginfo       0x0000000000000000       0x18 build/default/production/_ext/651226651/gapc_task.o
 .MIPS.abiflags
                0x0000000000000000       0x18 build/default/production/_ext/651226651/gapc_task.o
 .reginfo       0x0000000000000000       0x18 build/default/production/_ext/651226651/error.o
 .MIPS.abiflags
                0x0000000000000000       0x18 build/default/production/_ext/651226651/error.o
 .reginfo       0x0000000000000000       0x18 build/default/production/_ext/1954180691/wdrv_winc_sta.o
 .MIPS.abiflags
                0x0000000000000000       0x18 build/default/production/_ext/1954180691/wdrv_winc_sta.o
 .reginfo       0x0000000000000000       0x18 build/default/production/_ext/651226651/wifiprov_task.o
 .MIPS.abiflags
                0x0000000000000000       0x18 build/default/production/_ext/651226651/wifiprov_task.o
 .reginfo       0x0000000000000000       0x18 build/default/production/_ext/1908349716/spi_flash.o
 .MIPS.abiflags
                0x0000000000000000       0x18 build/default/production/_ext/1908349716/spi_flash.o
 .reginfo       0x0000000000000000       0x18 build/default/production/_ext/2094051164/socket.o
 .MIPS.abiflags
                0x0000000000000000       0x18 build/default/production/_ext/2094051164/socket.o
 .reginfo       0x0000000000000000       0x18 build/default/production/_ext/1697030576/wdrv_winc_spi.o
 .MIPS.abiflags
                0x0000000000000000       0x18 build/default/production/_ext/1697030576/wdrv_winc_spi.o
 .reginfo       0x0000000000000000       0x18 build/default/production/_ext/1667573777/m2m_wifi.o
 .MIPS.abiflags
                0x0000000000000000       0x18 build/default/production/_ext/1667573777/m2m_wifi.o
 .reginfo       0x0000000000000000       0x18 build/default/production/_ext/1667573777/nmbus.o
 .MIPS.abiflags
                0x0000000000000000       0x18 build/default/production/_ext/1667573777/nmbus.o
 .reginfo       0x0000000000000000       0x18 build/default/production/_ext/1954180691/wdrv_winc_wps.o
 .MIPS.abiflags
                0x0000000000000000       0x18 build/default/production/_ext/1954180691/wdrv_winc_wps.o
 .reginfo       0x0000000000000000       0x18 build/default/production/_ext/651226651/gatt_server.o
 .MIPS.abiflags
                0x0000000000000000       0x18 build/default/production/_ext/651226651/gatt_server.o
 .reginfo       0x0000000000000000       0x18 build/default/production/_ext/1954180691/wdrv_winc_httpprovctx.o
 .MIPS.abiflags
                0x0000000000000000       0x18 build/default/production/_ext/1954180691/wdrv_winc_httpprovctx.o
 .reginfo       0x0000000000000000       0x18 build/default/production/_ext/1954180691/wdrv_winc_softap.o
 .MIPS.abiflags
                0x0000000000000000       0x18 build/default/production/_ext/1954180691/wdrv_winc_softap.o
 .reginfo       0x0000000000000000       0x18 build/default/production/_ext/1667573777/nmspi.o
 .MIPS.abiflags
                0x0000000000000000       0x18 build/default/production/_ext/1667573777/nmspi.o
 .reginfo       0x0000000000000000       0x18 build/default/production/_ext/1954180691/wdrv_winc_ble.o
 .MIPS.abiflags
                0x0000000000000000       0x18 build/default/production/_ext/1954180691/wdrv_winc_ble.o
 .reginfo       0x0000000000000000       0x18 build/default/production/_ext/1667573777/nmdrv.o
 .MIPS.abiflags
                0x0000000000000000       0x18 build/default/production/_ext/1667573777/nmdrv.o
 .reginfo       0x0000000000000000       0x18 build/default/production/_ext/2094051164/inet_addr.o
 .MIPS.abiflags
                0x0000000000000000       0x18 build/default/production/_ext/2094051164/inet_addr.o
 .reginfo       0x0000000000000000       0x18 build/default/production/_ext/1667573777/m2m_ota.o
 .MIPS.abiflags
                0x0000000000000000       0x18 build/default/production/_ext/1667573777/m2m_ota.o
 .reginfo       0x0000000000000000       0x18 build/default/production/_ext/2018374705/wdrv_winc_osal.o
 .MIPS.abiflags
                0x0000000000000000       0x18 build/default/production/_ext/2018374705/wdrv_winc_osal.o
 .reginfo       0x0000000000000000       0x18 build/default/production/_ext/1954180691/wdrv_winc_authctx.o
 .MIPS.abiflags
                0x0000000000000000       0x18 build/default/production/_ext/1954180691/wdrv_winc_authctx.o
 .reginfo       0x0000000000000000       0x18 build/default/production/_ext/1306418660/platform.o
 .MIPS.abiflags
                0x0000000000000000       0x18 build/default/production/_ext/1306418660/platform.o
 .reginfo       0x0000000000000000       0x18 build/default/production/_ext/1954180691/wdrv_winc_bssfind.o
 .MIPS.abiflags
                0x0000000000000000       0x18 build/default/production/_ext/1954180691/wdrv_winc_bssfind.o
 .reginfo       0x0000000000000000       0x18 build/default/production/_ext/651226651/gattm_task.o
 .MIPS.abiflags
                0x0000000000000000       0x18 build/default/production/_ext/651226651/gattm_task.o
 .reginfo       0x0000000000000000       0x18 build/default/production/_ext/1954180691/wdrv_winc_custie.o
 .MIPS.abiflags
                0x0000000000000000       0x18 build/default/production/_ext/1954180691/wdrv_winc_custie.o
 .reginfo       0x0000000000000000       0x18 build/default/production/_ext/1954180691/wdrv_winc_enterprise.o
 .MIPS.abiflags
                0x0000000000000000       0x18 build/default/production/_ext/1954180691/wdrv_winc_enterprise.o
 .reginfo       0x0000000000000000       0x18 build/default/production/_ext/651226651/htpt.o
 .MIPS.abiflags
                0x0000000000000000       0x18 build/default/production/_ext/651226651/htpt.o
 .reginfo       0x0000000000000000       0x18 build/default/production/_ext/2094051164/inet_ntop.o
 .MIPS.abiflags
                0x0000000000000000       0x18 build/default/production/_ext/2094051164/inet_ntop.o
 .reginfo       0x0000000000000000       0x18 build/default/production/_ext/1636284884/nm_common.o
 .MIPS.abiflags
                0x0000000000000000       0x18 build/default/production/_ext/1636284884/nm_common.o
 .reginfo       0x0000000000000000       0x18 build/default/production/_ext/1667573777/m2m_flash.o
 .MIPS.abiflags
                0x0000000000000000       0x18 build/default/production/_ext/1667573777/m2m_flash.o
 .reginfo       0x0000000000000000       0x18 build/default/production/_ext/651226651/gapm_task.o
 .MIPS.abiflags
                0x0000000000000000       0x18 build/default/production/_ext/651226651/gapm_task.o
 .reginfo       0x0000000000000000       0x18 build/default/production/_ext/1954180691/wdrv_winc_ssl.o
 .MIPS.abiflags
                0x0000000000000000       0x18 build/default/production/_ext/1954180691/wdrv_winc_ssl.o
 .reginfo       0x0000000000000000       0x18 build/default/production/_ext/651226651/dbg_task.o
 .MIPS.abiflags
                0x0000000000000000       0x18 build/default/production/_ext/651226651/dbg_task.o
 .reginfo       0x0000000000000000       0x18 build/default/production/_ext/2070931557/drv_spi.o
 .MIPS.abiflags
                0x0000000000000000       0x18 build/default/production/_ext/2070931557/drv_spi.o
 .reginfo       0x0000000000000000       0x18 build/default/production/_ext/1954180691/wdrv_winc_socket.o
 .MIPS.abiflags
                0x0000000000000000       0x18 build/default/production/_ext/1954180691/wdrv_winc_socket.o
 .reginfo       0x0000000000000000       0x18 build/default/production/_ext/651226651/gap.o
 .MIPS.abiflags
                0x0000000000000000       0x18 build/default/production/_ext/651226651/gap.o
 .reginfo       0x0000000000000000       0x18 build/default/production/_ext/1667573777/m2m_ssl.o
 .MIPS.abiflags
                0x0000000000000000       0x18 build/default/production/_ext/1667573777/m2m_ssl.o
 .reginfo       0x0000000000000000       0x18 build/default/production/_ext/1068697685/wdrv_winc_gpio.o
 .MIPS.abiflags
                0x0000000000000000       0x18 build/default/production/_ext/1068697685/wdrv_winc_gpio.o
 .reginfo       0x0000000000000000       0x18 build/default/production/_ext/651226651/security.o
 .MIPS.abiflags
                0x0000000000000000       0x18 build/default/production/_ext/651226651/security.o
 .reginfo       0x0000000000000000       0x18 build/default/production/_ext/1954180691/wdrv_winc_assoc.o
 .MIPS.abiflags
                0x0000000000000000       0x18 build/default/production/_ext/1954180691/wdrv_winc_assoc.o
 .reginfo       0x0000000000000000       0x18 build/default/production/_ext/651226651/htpt_task.o
 .MIPS.abiflags
                0x0000000000000000       0x18 build/default/production/_ext/651226651/htpt_task.o
 .reginfo       0x0000000000000000       0x18 build/default/production/_ext/1667573777/nmasic.o
 .MIPS.abiflags
                0x0000000000000000       0x18 build/default/production/_ext/1667573777/nmasic.o
 .reginfo       0x0000000000000000       0x18 build/default/production/example.o
 .MIPS.abiflags
                0x0000000000000000       0x18 build/default/production/example.o
 .reginfo       0x0000000000000000       0x18 /tmp/ccyN9zno.o
 .MIPS.abiflags
                0x0000000000000000       0x18 /tmp/ccyN9zno.o
 .reginfo       0x0000000000000000       0x18 /tmp/cc6wiA0f.o
 .MIPS.abiflags
                0x0000000000000000       0x18 /tmp/cc6wiA0f.o
 .reginfo       0x0000000000000000       0x18 /tmp/ccNcFTSD.o
 .MIPS.abiflags
                0x0000000000000000       0x18 /tmp/ccNcFTSD.o
 .reginfo       0x0000000000000000       0x18 /tmp/ccmzy7S2.o
 .MIPS.abiflags
                0x0000000000000000       0x18 /tmp/ccmzy7S2.o
 .discard       0x0000000000000000        0x4 /tmp/ccmzy7S2.o
 .reginfo       0x0000000000000000       0x18 /opt/microchip/xc32/v4.35/bin/bin/../../lib/gcc/pic32mx/8.3.1/../../../../pic32mx/lib/fpu64/pic32_software_reset.o
 .MIPS.abiflags
                0x0000000000000000       0x18 /opt/microchip/xc32/v4.35/bin/bin/../../lib/gcc/pic32mx/8.3.1/../../../../pic32mx/lib/fpu64/pic32_software_reset.o
 .xc_stack_usage.hdr
                0x0000000000000000        0xe /opt/microchip/xc32/v4.35/bin/bin/../../lib/gcc/pic32mx/8.3.1/../../../../pic32mx/lib/fpu64/pic32_software_reset.o
 .xc_stack_usage
                0x0000000000000000       0x24 /opt/microchip/xc32/v4.35/bin/bin/../../lib/gcc/pic32mx/8.3.1/../../../../pic32mx/lib/fpu64/pic32_software_reset.o
 .reginfo       0x0000000000000000       0x18 /opt/microchip/xc32/v4.35/bin/bin/../../lib/gcc/pic32mx/8.3.1/fpu64/libgcc.a(_udivdi3.o)
 .MIPS.abiflags
                0x0000000000000000       0x18 /opt/microchip/xc32/v4.35/bin/bin/../../lib/gcc/pic32mx/8.3.1/fpu64/libgcc.a(_udivdi3.o)
 .xc_stack_usage
                0x0000000000000000       0x17 /opt/microchip/xc32/v4.35/bin/bin/../../lib/gcc/pic32mx/8.3.1/fpu64/libgcc.a(_udivdi3.o)
 .xc_stack_usage.hdr
                0x0000000000000000        0xe /opt/microchip/xc32/v4.35/bin/bin/../../lib/gcc/pic32mx/8.3.1/fpu64/libgcc.a(_udivdi3.o)
 .reginfo       0x0000000000000000       0x18 /opt/microchip/xc32/v4.35/bin/bin/../../lib/gcc/pic32mx/8.3.1/../../../../pic32mx/lib/fpu64/libpic32.a(memcmp.o)
 .MIPS.abiflags
                0x0000000000000000       0x18 /opt/microchip/xc32/v4.35/bin/bin/../../lib/gcc/pic32mx/8.3.1/../../../../pic32mx/lib/fpu64/libpic32.a(memcmp.o)
 .xc_stack_usage.hdr
                0x0000000000000000        0xe /opt/microchip/xc32/v4.35/bin/bin/../../lib/gcc/pic32mx/8.3.1/../../../../pic32mx/lib/fpu64/libpic32.a(memcmp.o)
 .xc_stack_usage
                0x0000000000000000       0x14 /opt/microchip/xc32/v4.35/bin/bin/../../lib/gcc/pic32mx/8.3.1/../../../../pic32mx/lib/fpu64/libpic32.a(memcmp.o)
 .reginfo       0x0000000000000000       0x18 /opt/microchip/xc32/v4.35/bin/bin/../../lib/gcc/pic32mx/8.3.1/../../../../pic32mx/lib/fpu64/libpic32.a(memcpy.o)
 .MIPS.abiflags
                0x0000000000000000       0x18 /opt/microchip/xc32/v4.35/bin/bin/../../lib/gcc/pic32mx/8.3.1/../../../../pic32mx/lib/fpu64/libpic32.a(memcpy.o)
 .xc_stack_usage.hdr
                0x0000000000000000        0xe /opt/microchip/xc32/v4.35/bin/bin/../../lib/gcc/pic32mx/8.3.1/../../../../pic32mx/lib/fpu64/libpic32.a(memcpy.o)
 .xc_stack_usage
                0x0000000000000000       0x14 /opt/microchip/xc32/v4.35/bin/bin/../../lib/gcc/pic32mx/8.3.1/../../../../pic32mx/lib/fpu64/libpic32.a(memcpy.o)
 .reginfo       0x0000000000000000       0x18 /opt/microchip/xc32/v4.35/bin/bin/../../lib/gcc/pic32mx/8.3.1/../../../../pic32mx/lib/fpu64/libpic32.a(memset.o)
 .MIPS.abiflags
                0x0000000000000000       0x18 /opt/microchip/xc32/v4.35/bin/bin/../../lib/gcc/pic32mx/8.3.1/../../../../pic32mx/lib/fpu64/libpic32.a(memset.o)
 .xc_stack_usage.hdr
                0x0000000000000000        0xe /opt/microchip/xc32/v4.35/bin/bin/../../lib/gcc/pic32mx/8.3.1/../../../../pic32mx/lib/fpu64/libpic32.a(memset.o)
 .xc_stack_usage
                0x0000000000000000       0x14 /opt/microchip/xc32/v4.35/bin/bin/../../lib/gcc/pic32mx/8.3.1/../../../../pic32mx/lib/fpu64/libpic32.a(memset.o)
 .reginfo       0x0000000000000000       0x18 /opt/microchip/xc32/v4.35/bin/bin/../../lib/gcc/pic32mx/8.3.1/../../../../pic32mx/lib/fpu64/libpic32.a(strlen.o)
 .MIPS.abiflags
                0x0000000000000000       0x18 /opt/microchip/xc32/v4.35/bin/bin/../../lib/gcc/pic32mx/8.3.1/../../../../pic32mx/lib/fpu64/libpic32.a(strlen.o)
 .xc_stack_usage.hdr
                0x0000000000000000        0xe /opt/microchip/xc32/v4.35/bin/bin/../../lib/gcc/pic32mx/8.3.1/../../../../pic32mx/lib/fpu64/libpic32.a(strlen.o)
 .xc_stack_usage
                0x0000000000000000       0x14 /opt/microchip/xc32/v4.35/bin/bin/../../lib/gcc/pic32mx/8.3.1/../../../../pic32mx/lib/fpu64/libpic32.a(strlen.o)
 .reginfo       0x0000000000000000       0x18 /opt/microchip/xc32/v4.35/bin/bin/../../lib/gcc/pic32mx/8.3.1/../../../../pic32mx/lib/fpu64/libpic32.a(default-on-reset.o)
 .MIPS.abiflags
                0x0000000000000000       0x18 /opt/microchip/xc32/v4.35/bin/bin/../../lib/gcc/pic32mx/8.3.1/../../../../pic32mx/lib/fpu64/libpic32.a(default-on-reset.o)
 .xc_stack_usage
                0x0000000000000000       0x17 /opt/microchip/xc32/v4.35/bin/bin/../../lib/gcc/pic32mx/8.3.1/../../../../pic32mx/lib/fpu64/libpic32.a(default-on-reset.o)
 .xc_stack_usage.hdr
                0x0000000000000000        0xe /opt/microchip/xc32/v4.35/bin/bin/../../lib/gcc/pic32mx/8.3.1/../../../../pic32mx/lib/fpu64/libpic32.a(default-on-reset.o)
 .reginfo       0x0000000000000000       0x18 /opt/microchip/xc32/v4.35/bin/bin/../../lib/gcc/pic32mx/8.3.1/../../../../pic32mx/lib/fpu64/libpic32.a(default-on-bootstrap.o)
 .MIPS.abiflags
                0x0000000000000000       0x18 /opt/microchip/xc32/v4.35/bin/bin/../../lib/gcc/pic32mx/8.3.1/../../../../pic32mx/lib/fpu64/libpic32.a(default-on-bootstrap.o)
 .xc_stack_usage
                0x0000000000000000       0x1b /opt/microchip/xc32/v4.35/bin/bin/../../lib/gcc/pic32mx/8.3.1/../../../../pic32mx/lib/fpu64/libpic32.a(default-on-bootstrap.o)
 .xc_stack_usage.hdr
                0x0000000000000000        0xe /opt/microchip/xc32/v4.35/bin/bin/../../lib/gcc/pic32mx/8.3.1/../../../../pic32mx/lib/fpu64/libpic32.a(default-on-bootstrap.o)
 .reginfo       0x0000000000000000       0x18 /opt/microchip/xc32/v4.35/bin/bin/../../lib/gcc/pic32mx/8.3.1/../../../../pic32mx/lib/fpu64/libpic32.a(default-nmi-handler.o)
 .MIPS.abiflags
                0x0000000000000000       0x18 /opt/microchip/xc32/v4.35/bin/bin/../../lib/gcc/pic32mx/8.3.1/../../../../pic32mx/lib/fpu64/libpic32.a(default-nmi-handler.o)
 .xc_stack_usage.hdr
                0x0000000000000000        0xe /opt/microchip/xc32/v4.35/bin/bin/../../lib/gcc/pic32mx/8.3.1/../../../../pic32mx/lib/fpu64/libpic32.a(default-nmi-handler.o)
 .xc_stack_usage
                0x0000000000000000       0x1a /opt/microchip/xc32/v4.35/bin/bin/../../lib/gcc/pic32mx/8.3.1/../../../../pic32mx/lib/fpu64/libpic32.a(default-nmi-handler.o)
 .reginfo       0x0000000000000000       0x18 /opt/microchip/xc32/v4.35/bin/bin/../../lib/gcc/pic32mx/8.3.1/../../../../pic32mx/lib/fpu64/libpic32.a(pic32_data_init_core.o)
 .MIPS.abiflags
                0x0000000000000000       0x18 /opt/microchip/xc32/v4.35/bin/bin/../../lib/gcc/pic32mx/8.3.1/../../../../pic32mx/lib/fpu64/libpic32.a(pic32_data_init_core.o)
 .xc_stack_usage.hdr
                0x0000000000000000        0xe /opt/microchip/xc32/v4.35/bin/bin/../../lib/gcc/pic32mx/8.3.1/../../../../pic32mx/lib/fpu64/libpic32.a(pic32_data_init_core.o)
 .xc_stack_usage
                0x0000000000000000       0x41 /opt/microchip/xc32/v4.35/bin/bin/../../lib/gcc/pic32mx/8.3.1/../../../../pic32mx/lib/fpu64/libpic32.a(pic32_data_init_core.o)
 .reginfo       0x0000000000000000       0x18 /opt/microchip/xc32/v4.35/bin/bin/../../lib/gcc/pic32mx/8.3.1/../../../../pic32mx/lib/fpu64/libpic32.a(pic32_init_cache.o)
 .MIPS.abiflags
                0x0000000000000000       0x18 /opt/microchip/xc32/v4.35/bin/bin/../../lib/gcc/pic32mx/8.3.1/../../../../pic32mx/lib/fpu64/libpic32.a(pic32_init_cache.o)
 .xc_stack_usage.hdr
                0x0000000000000000        0xe /opt/microchip/xc32/v4.35/bin/bin/../../lib/gcc/pic32mx/8.3.1/../../../../pic32mx/lib/fpu64/libpic32.a(pic32_init_cache.o)
 .xc_stack_usage
                0x0000000000000000       0x5a /opt/microchip/xc32/v4.35/bin/bin/../../lib/gcc/pic32mx/8.3.1/../../../../pic32mx/lib/fpu64/libpic32.a(pic32_init_cache.o)
 .reginfo       0x0000000000000000       0x18 /opt/microchip/xc32/v4.35/bin/bin/../../lib/gcc/pic32mx/8.3.1/../../../../pic32mx/lib/fpu64/libpic32.a(pic32_init_tlb_ebi_sqi.o)
 .MIPS.abiflags
                0x0000000000000000       0x18 /opt/microchip/xc32/v4.35/bin/bin/../../lib/gcc/pic32mx/8.3.1/../../../../pic32mx/lib/fpu64/libpic32.a(pic32_init_tlb_ebi_sqi.o)
 .xc_stack_usage.hdr
                0x0000000000000000        0xe /opt/microchip/xc32/v4.35/bin/bin/../../lib/gcc/pic32mx/8.3.1/../../../../pic32mx/lib/fpu64/libpic32.a(pic32_init_tlb_ebi_sqi.o)
 .xc_stack_usage
                0x0000000000000000       0x26 /opt/microchip/xc32/v4.35/bin/bin/../../lib/gcc/pic32mx/8.3.1/../../../../pic32mx/lib/fpu64/libpic32.a(pic32_init_tlb_ebi_sqi.o)
 .reginfo       0x0000000000000000       0x18 /opt/microchip/xc32/v4.35/bin/bin/../../lib/gcc/pic32mx/8.3.1/../../../../pic32mx/lib/fpu64/libpic32.a(general-exception.o)
 .MIPS.abiflags
                0x0000000000000000       0x18 /opt/microchip/xc32/v4.35/bin/bin/../../lib/gcc/pic32mx/8.3.1/../../../../pic32mx/lib/fpu64/libpic32.a(general-exception.o)
 .xc_stack_usage.hdr
                0x0000000000000000        0xe /opt/microchip/xc32/v4.35/bin/bin/../../lib/gcc/pic32mx/8.3.1/../../../../pic32mx/lib/fpu64/libpic32.a(general-exception.o)
 .xc_stack_usage
                0x0000000000000000       0x28 /opt/microchip/xc32/v4.35/bin/bin/../../lib/gcc/pic32mx/8.3.1/../../../../pic32mx/lib/fpu64/libpic32.a(general-exception.o)
 .reginfo       0x0000000000000000       0x18 /opt/microchip/xc32/v4.35/bin/bin/../../lib/gcc/pic32mx/8.3.1/../../../../pic32mx/lib/fpu64/libpic32.a(cache-err-exception.o)
 .MIPS.abiflags
                0x0000000000000000       0x18 /opt/microchip/xc32/v4.35/bin/bin/../../lib/gcc/pic32mx/8.3.1/../../../../pic32mx/lib/fpu64/libpic32.a(cache-err-exception.o)
 .xc_stack_usage.hdr
                0x0000000000000000        0xe /opt/microchip/xc32/v4.35/bin/bin/../../lib/gcc/pic32mx/8.3.1/../../../../pic32mx/lib/fpu64/libpic32.a(cache-err-exception.o)
 .xc_stack_usage
                0x0000000000000000       0x2a /opt/microchip/xc32/v4.35/bin/bin/../../lib/gcc/pic32mx/8.3.1/../../../../pic32mx/lib/fpu64/libpic32.a(cache-err-exception.o)
 .reginfo       0x0000000000000000       0x18 /opt/microchip/xc32/v4.35/bin/bin/../../lib/gcc/pic32mx/8.3.1/../../../../pic32mx/lib/fpu64/libpic32.a(simple-tlb-refill-exception.o)
 .MIPS.abiflags
                0x0000000000000000       0x18 /opt/microchip/xc32/v4.35/bin/bin/../../lib/gcc/pic32mx/8.3.1/../../../../pic32mx/lib/fpu64/libpic32.a(simple-tlb-refill-exception.o)
 .xc_stack_usage.hdr
                0x0000000000000000        0xe /opt/microchip/xc32/v4.35/bin/bin/../../lib/gcc/pic32mx/8.3.1/../../../../pic32mx/lib/fpu64/libpic32.a(simple-tlb-refill-exception.o)
 .xc_stack_usage
                0x0000000000000000       0x32 /opt/microchip/xc32/v4.35/bin/bin/../../lib/gcc/pic32mx/8.3.1/../../../../pic32mx/lib/fpu64/libpic32.a(simple-tlb-refill-exception.o)
 .reginfo       0x0000000000000000       0x18 /opt/microchip/xc32/v4.35/bin/bin/../../lib/gcc/pic32mx/8.3.1/../../../../pic32mx/lib/fpu64/libpic32.a(defaultinterrupt.o)
 .MIPS.abiflags
                0x0000000000000000       0x18 /opt/microchip/xc32/v4.35/bin/bin/../../lib/gcc/pic32mx/8.3.1/../../../../pic32mx/lib/fpu64/libpic32.a(defaultinterrupt.o)
 .xc_stack_usage
                0x0000000000000000       0x1f /opt/microchip/xc32/v4.35/bin/bin/../../lib/gcc/pic32mx/8.3.1/../../../../pic32mx/lib/fpu64/libpic32.a(defaultinterrupt.o)
 .xc_stack_usage.hdr
                0x0000000000000000        0xe /opt/microchip/xc32/v4.35/bin/bin/../../lib/gcc/pic32mx/8.3.1/../../../../pic32mx/lib/fpu64/libpic32.a(defaultinterrupt.o)
 .reginfo       0x0000000000000000       0x18 /opt/microchip/xc32/v4.35/bin/bin/../../lib/gcc/pic32mx/8.3.1/../../../../pic32mx/lib/fpu64/libc-musl.a(vsnprintf.o)
 .MIPS.abiflags
                0x0000000000000000       0x18 /opt/microchip/xc32/v4.35/bin/bin/../../lib/gcc/pic32mx/8.3.1/../../../../pic32mx/lib/fpu64/libc-musl.a(vsnprintf.o)
 .xc_stack_usage
                0x0000000000000000       0x17 /opt/microchip/xc32/v4.35/bin/bin/../../lib/gcc/pic32mx/8.3.1/../../../../pic32mx/lib/fpu64/libc-musl.a(vsnprintf.o)
 .xc_stack_usage.hdr
                0x0000000000000000        0xe /opt/microchip/xc32/v4.35/bin/bin/../../lib/gcc/pic32mx/8.3.1/../../../../pic32mx/lib/fpu64/libc-musl.a(vsnprintf.o)
 .note.GNU-stack
                0x0000000000000000        0x0 /opt/microchip/xc32/v4.35/bin/bin/../../lib/gcc/pic32mx/8.3.1/../../../../pic32mx/lib/fpu64/libc-musl.a(vsnprintf.o)
 .reginfo       0x0000000000000000       0x18 /opt/microchip/xc32/v4.35/bin/bin/../../lib/gcc/pic32mx/8.3.1/../../../../pic32mx/lib/fpu64/libc-musl.a(sprintf.o)
 .MIPS.abiflags
                0x0000000000000000       0x18 /opt/microchip/xc32/v4.35/bin/bin/../../lib/gcc/pic32mx/8.3.1/../../../../pic32mx/lib/fpu64/libc-musl.a(sprintf.o)
 .xc_stack_usage
                0x0000000000000000       0x15 /opt/microchip/xc32/v4.35/bin/bin/../../lib/gcc/pic32mx/8.3.1/../../../../pic32mx/lib/fpu64/libc-musl.a(sprintf.o)
 .xc_stack_usage.hdr
                0x0000000000000000        0xe /opt/microchip/xc32/v4.35/bin/bin/../../lib/gcc/pic32mx/8.3.1/../../../../pic32mx/lib/fpu64/libc-musl.a(sprintf.o)
 .note.GNU-stack
                0x0000000000000000        0x0 /opt/microchip/xc32/v4.35/bin/bin/../../lib/gcc/pic32mx/8.3.1/../../../../pic32mx/lib/fpu64/libc-musl.a(sprintf.o)
 .reginfo       0x0000000000000000       0x18 /opt/microchip/xc32/v4.35/bin/bin/../../lib/gcc/pic32mx/8.3.1/../../../../pic32mx/lib/fpu64/libc-musl.a(vsprintf.o)
 .MIPS.abiflags
                0x0000000000000000       0x18 /opt/microchip/xc32/v4.35/bin/bin/../../lib/gcc/pic32mx/8.3.1/../../../../pic32mx/lib/fpu64/libc-musl.a(vsprintf.o)
 .xc_stack_usage
                0x0000000000000000       0x16 /opt/microchip/xc32/v4.35/bin/bin/../../lib/gcc/pic32mx/8.3.1/../../../../pic32mx/lib/fpu64/libc-musl.a(vsprintf.o)
 .xc_stack_usage.hdr
                0x0000000000000000        0xe /opt/microchip/xc32/v4.35/bin/bin/../../lib/gcc/pic32mx/8.3.1/../../../../pic32mx/lib/fpu64/libc-musl.a(vsprintf.o)
 .note.GNU-stack
                0x0000000000000000        0x0 /opt/microchip/xc32/v4.35/bin/bin/../../lib/gcc/pic32mx/8.3.1/../../../../pic32mx/lib/fpu64/libc-musl.a(vsprintf.o)
 .reginfo       0x0000000000000000       0x18 /opt/microchip/xc32/v4.35/bin/bin/../../lib/gcc/pic32mx/8.3.1/../../../../pic32mx/lib/fpu64/libc-musl.a(strchr.o)
 .MIPS.abiflags
                0x0000000000000000       0x18 /opt/microchip/xc32/v4.35/bin/bin/../../lib/gcc/pic32mx/8.3.1/../../../../pic32mx/lib/fpu64/libc-musl.a(strchr.o)
 .xc_stack_usage
                0x0000000000000000       0x14 /opt/microchip/xc32/v4.35/bin/bin/../../lib/gcc/pic32mx/8.3.1/../../../../pic32mx/lib/fpu64/libc-musl.a(strchr.o)
 .xc_stack_usage.hdr
                0x0000000000000000        0xe /opt/microchip/xc32/v4.35/bin/bin/../../lib/gcc/pic32mx/8.3.1/../../../../pic32mx/lib/fpu64/libc-musl.a(strchr.o)
 .note.GNU-stack
                0x0000000000000000        0x0 /opt/microchip/xc32/v4.35/bin/bin/../../lib/gcc/pic32mx/8.3.1/../../../../pic32mx/lib/fpu64/libc-musl.a(strchr.o)
 .reginfo       0x0000000000000000       0x18 /opt/microchip/xc32/v4.35/bin/bin/../../lib/gcc/pic32mx/8.3.1/../../../../pic32mx/lib/fpu64/libc-musl.a(strchrnul.o)
 .MIPS.abiflags
                0x0000000000000000       0x18 /opt/microchip/xc32/v4.35/bin/bin/../../lib/gcc/pic32mx/8.3.1/../../../../pic32mx/lib/fpu64/libc-musl.a(strchrnul.o)
 .xc_stack_usage
                0x0000000000000000       0x19 /opt/microchip/xc32/v4.35/bin/bin/../../lib/gcc/pic32mx/8.3.1/../../../../pic32mx/lib/fpu64/libc-musl.a(strchrnul.o)
 .xc_stack_usage.hdr
                0x0000000000000000        0xe /opt/microchip/xc32/v4.35/bin/bin/../../lib/gcc/pic32mx/8.3.1/../../../../pic32mx/lib/fpu64/libc-musl.a(strchrnul.o)
 .note.GNU-stack
                0x0000000000000000        0x0 /opt/microchip/xc32/v4.35/bin/bin/../../lib/gcc/pic32mx/8.3.1/../../../../pic32mx/lib/fpu64/libc-musl.a(strchrnul.o)
 .reginfo       0x0000000000000000       0x18 /opt/microchip/xc32/v4.35/bin/bin/../../lib/gcc/pic32mx/8.3.1/../../../../pic32mx/lib/fpu64/libc-musl.a(strnlen.o)
 .MIPS.abiflags
                0x0000000000000000       0x18 /opt/microchip/xc32/v4.35/bin/bin/../../lib/gcc/pic32mx/8.3.1/../../../../pic32mx/lib/fpu64/libc-musl.a(strnlen.o)
 .xc_stack_usage
                0x0000000000000000       0x15 /opt/microchip/xc32/v4.35/bin/bin/../../lib/gcc/pic32mx/8.3.1/../../../../pic32mx/lib/fpu64/libc-musl.a(strnlen.o)
 .xc_stack_usage.hdr
                0x0000000000000000        0xe /opt/microchip/xc32/v4.35/bin/bin/../../lib/gcc/pic32mx/8.3.1/../../../../pic32mx/lib/fpu64/libc-musl.a(strnlen.o)
 .note.GNU-stack
                0x0000000000000000        0x0 /opt/microchip/xc32/v4.35/bin/bin/../../lib/gcc/pic32mx/8.3.1/../../../../pic32mx/lib/fpu64/libc-musl.a(strnlen.o)
 .reginfo       0x0000000000000000       0x18 /opt/microchip/xc32/v4.35/bin/bin/../../lib/gcc/pic32mx/8.3.1/../../../../pic32mx/lib/fpu64/libc-musl.a(gmtime.o)
 .MIPS.abiflags
                0x0000000000000000       0x18 /opt/microchip/xc32/v4.35/bin/bin/../../lib/gcc/pic32mx/8.3.1/../../../../pic32mx/lib/fpu64/libc-musl.a(gmtime.o)
 .xc_stack_usage
                0x0000000000000000       0x14 /opt/microchip/xc32/v4.35/bin/bin/../../lib/gcc/pic32mx/8.3.1/../../../../pic32mx/lib/fpu64/libc-musl.a(gmtime.o)
 .xc_stack_usage.hdr
                0x0000000000000000        0xe /opt/microchip/xc32/v4.35/bin/bin/../../lib/gcc/pic32mx/8.3.1/../../../../pic32mx/lib/fpu64/libc-musl.a(gmtime.o)
 .note.GNU-stack
                0x0000000000000000        0x0 /opt/microchip/xc32/v4.35/bin/bin/../../lib/gcc/pic32mx/8.3.1/../../../../pic32mx/lib/fpu64/libc-musl.a(gmtime.o)
 .reginfo       0x0000000000000000       0x18 /opt/microchip/xc32/v4.35/bin/bin/../../lib/gcc/pic32mx/8.3.1/../../../../pic32mx/lib/fpu64/libc-musl.a(gmtime_r.o)
 .MIPS.abiflags
                0x0000000000000000       0x18 /opt/microchip/xc32/v4.35/bin/bin/../../lib/gcc/pic32mx/8.3.1/../../../../pic32mx/lib/fpu64/libc-musl.a(gmtime_r.o)
 .xc_stack_usage
                0x0000000000000000       0x18 /opt/microchip/xc32/v4.35/bin/bin/../../lib/gcc/pic32mx/8.3.1/../../../../pic32mx/lib/fpu64/libc-musl.a(gmtime_r.o)
 .xc_stack_usage.hdr
                0x0000000000000000        0xe /opt/microchip/xc32/v4.35/bin/bin/../../lib/gcc/pic32mx/8.3.1/../../../../pic32mx/lib/fpu64/libc-musl.a(gmtime_r.o)
 .note.GNU-stack
                0x0000000000000000        0x0 /opt/microchip/xc32/v4.35/bin/bin/../../lib/gcc/pic32mx/8.3.1/../../../../pic32mx/lib/fpu64/libc-musl.a(gmtime_r.o)
 .reginfo       0x0000000000000000       0x18 /opt/microchip/xc32/v4.35/bin/bin/../../lib/gcc/pic32mx/8.3.1/../../../../pic32mx/lib/fpu64/libc-musl.a(mktime.o)
 .MIPS.abiflags
                0x0000000000000000       0x18 /opt/microchip/xc32/v4.35/bin/bin/../../lib/gcc/pic32mx/8.3.1/../../../../pic32mx/lib/fpu64/libc-musl.a(mktime.o)
 .xc_stack_usage
                0x0000000000000000       0x14 /opt/microchip/xc32/v4.35/bin/bin/../../lib/gcc/pic32mx/8.3.1/../../../../pic32mx/lib/fpu64/libc-musl.a(mktime.o)
 .xc_stack_usage.hdr
                0x0000000000000000        0xe /opt/microchip/xc32/v4.35/bin/bin/../../lib/gcc/pic32mx/8.3.1/../../../../pic32mx/lib/fpu64/libc-musl.a(mktime.o)
 .note.GNU-stack
                0x0000000000000000        0x0 /opt/microchip/xc32/v4.35/bin/bin/../../lib/gcc/pic32mx/8.3.1/../../../../pic32mx/lib/fpu64/libc-musl.a(mktime.o)
 .reginfo       0x0000000000000000       0x18 /opt/microchip/xc32/v4.35/bin/bin/../../lib/gcc/pic32mx/8.3.1/../../../../pic32mx/lib/fpu64/libc-musl.a(vfprintf.o)
 .MIPS.abiflags
                0x0000000000000000       0x18 /opt/microchip/xc32/v4.35/bin/bin/../../lib/gcc/pic32mx/8.3.1/../../../../pic32mx/lib/fpu64/libc-musl.a(vfprintf.o)
 .xc_stack_usage
                0x0000000000000000       0x38 /opt/microchip/xc32/v4.35/bin/bin/../../lib/gcc/pic32mx/8.3.1/../../../../pic32mx/lib/fpu64/libc-musl.a(vfprintf.o)
 .xc_stack_usage.hdr
                0x0000000000000000        0xe /opt/microchip/xc32/v4.35/bin/bin/../../lib/gcc/pic32mx/8.3.1/../../../../pic32mx/lib/fpu64/libc-musl.a(vfprintf.o)
 .note.GNU-stack
                0x0000000000000000        0x0 /opt/microchip/xc32/v4.35/bin/bin/../../lib/gcc/pic32mx/8.3.1/../../../../pic32mx/lib/fpu64/libc-musl.a(vfprintf.o)
 .reginfo       0x0000000000000000       0x18 /opt/microchip/xc32/v4.35/bin/bin/../../lib/gcc/pic32mx/8.3.1/../../../../pic32mx/lib/fpu64/libc-musl.a(memchr.o)
 .MIPS.abiflags
                0x0000000000000000       0x18 /opt/microchip/xc32/v4.35/bin/bin/../../lib/gcc/pic32mx/8.3.1/../../../../pic32mx/lib/fpu64/libc-musl.a(memchr.o)
 .xc_stack_usage
                0x0000000000000000       0x14 /opt/microchip/xc32/v4.35/bin/bin/../../lib/gcc/pic32mx/8.3.1/../../../../pic32mx/lib/fpu64/libc-musl.a(memchr.o)
 .xc_stack_usage.hdr
                0x0000000000000000        0xe /opt/microchip/xc32/v4.35/bin/bin/../../lib/gcc/pic32mx/8.3.1/../../../../pic32mx/lib/fpu64/libc-musl.a(memchr.o)
 .note.GNU-stack
                0x0000000000000000        0x0 /opt/microchip/xc32/v4.35/bin/bin/../../lib/gcc/pic32mx/8.3.1/../../../../pic32mx/lib/fpu64/libc-musl.a(memchr.o)
 .reginfo       0x0000000000000000       0x18 /opt/microchip/xc32/v4.35/bin/bin/../../lib/gcc/pic32mx/8.3.1/../../../../pic32mx/lib/fpu64/libc-musl.a(__tm_to_secs.o)
 .MIPS.abiflags
                0x0000000000000000       0x18 /opt/microchip/xc32/v4.35/bin/bin/../../lib/gcc/pic32mx/8.3.1/../../../../pic32mx/lib/fpu64/libc-musl.a(__tm_to_secs.o)
 .xc_stack_usage
                0x0000000000000000       0x1a /opt/microchip/xc32/v4.35/bin/bin/../../lib/gcc/pic32mx/8.3.1/../../../../pic32mx/lib/fpu64/libc-musl.a(__tm_to_secs.o)
 .xc_stack_usage.hdr
                0x0000000000000000        0xe /opt/microchip/xc32/v4.35/bin/bin/../../lib/gcc/pic32mx/8.3.1/../../../../pic32mx/lib/fpu64/libc-musl.a(__tm_to_secs.o)
 .note.GNU-stack
                0x0000000000000000        0x0 /opt/microchip/xc32/v4.35/bin/bin/../../lib/gcc/pic32mx/8.3.1/../../../../pic32mx/lib/fpu64/libc-musl.a(__tm_to_secs.o)
 .reginfo       0x0000000000000000       0x18 /opt/microchip/xc32/v4.35/bin/bin/../../lib/gcc/pic32mx/8.3.1/../../../../pic32mx/lib/fpu64/libc-musl.a(__year_to_secs.o)
 .MIPS.abiflags
                0x0000000000000000       0x18 /opt/microchip/xc32/v4.35/bin/bin/../../lib/gcc/pic32mx/8.3.1/../../../../pic32mx/lib/fpu64/libc-musl.a(__year_to_secs.o)
 .xc_stack_usage
                0x0000000000000000       0x1c /opt/microchip/xc32/v4.35/bin/bin/../../lib/gcc/pic32mx/8.3.1/../../../../pic32mx/lib/fpu64/libc-musl.a(__year_to_secs.o)
 .xc_stack_usage.hdr
                0x0000000000000000        0xe /opt/microchip/xc32/v4.35/bin/bin/../../lib/gcc/pic32mx/8.3.1/../../../../pic32mx/lib/fpu64/libc-musl.a(__year_to_secs.o)
 .note.GNU-stack
                0x0000000000000000        0x0 /opt/microchip/xc32/v4.35/bin/bin/../../lib/gcc/pic32mx/8.3.1/../../../../pic32mx/lib/fpu64/libc-musl.a(__year_to_secs.o)
 .reginfo       0x0000000000000000       0x18 /opt/microchip/xc32/v4.35/bin/bin/../../lib/gcc/pic32mx/8.3.1/../../../../pic32mx/lib/fpu64/libc-musl.a(__secs_to_tm.o)
 .MIPS.abiflags
                0x0000000000000000       0x18 /opt/microchip/xc32/v4.35/bin/bin/../../lib/gcc/pic32mx/8.3.1/../../../../pic32mx/lib/fpu64/libc-musl.a(__secs_to_tm.o)
 .xc_stack_usage
                0x0000000000000000       0x1a /opt/microchip/xc32/v4.35/bin/bin/../../lib/gcc/pic32mx/8.3.1/../../../../pic32mx/lib/fpu64/libc-musl.a(__secs_to_tm.o)
 .xc_stack_usage.hdr
                0x0000000000000000        0xe /opt/microchip/xc32/v4.35/bin/bin/../../lib/gcc/pic32mx/8.3.1/../../../../pic32mx/lib/fpu64/libc-musl.a(__secs_to_tm.o)
 .note.GNU-stack
                0x0000000000000000        0x0 /opt/microchip/xc32/v4.35/bin/bin/../../lib/gcc/pic32mx/8.3.1/../../../../pic32mx/lib/fpu64/libc-musl.a(__secs_to_tm.o)
 .reginfo       0x0000000000000000       0x18 /opt/microchip/xc32/v4.35/bin/bin/../../lib/gcc/pic32mx/8.3.1/../../../../pic32mx/lib/fpu64/libc-musl.a(__io_fmt_needed.o)
 .MIPS.abiflags
                0x0000000000000000       0x18 /opt/microchip/xc32/v4.35/bin/bin/../../lib/gcc/pic32mx/8.3.1/../../../../pic32mx/lib/fpu64/libc-musl.a(__io_fmt_needed.o)
 .xc_stack_usage
                0x0000000000000000       0x1d /opt/microchip/xc32/v4.35/bin/bin/../../lib/gcc/pic32mx/8.3.1/../../../../pic32mx/lib/fpu64/libc-musl.a(__io_fmt_needed.o)
 .xc_stack_usage.hdr
                0x0000000000000000        0xe /opt/microchip/xc32/v4.35/bin/bin/../../lib/gcc/pic32mx/8.3.1/../../../../pic32mx/lib/fpu64/libc-musl.a(__io_fmt_needed.o)
 .note.GNU-stack
                0x0000000000000000        0x0 /opt/microchip/xc32/v4.35/bin/bin/../../lib/gcc/pic32mx/8.3.1/../../../../pic32mx/lib/fpu64/libc-musl.a(__io_fmt_needed.o)
 .reginfo       0x0000000000000000       0x18 /opt/microchip/xc32/v4.35/bin/bin/../../lib/gcc/pic32mx/8.3.1/../../../../pic32mx/lib/fpu64/libc-musl.a(__pop_float.o)
 .MIPS.abiflags
                0x0000000000000000       0x18 /opt/microchip/xc32/v4.35/bin/bin/../../lib/gcc/pic32mx/8.3.1/../../../../pic32mx/lib/fpu64/libc-musl.a(__pop_float.o)
 .xc_stack_usage
                0x0000000000000000       0x19 /opt/microchip/xc32/v4.35/bin/bin/../../lib/gcc/pic32mx/8.3.1/../../../../pic32mx/lib/fpu64/libc-musl.a(__pop_float.o)
 .xc_stack_usage.hdr
                0x0000000000000000        0xe /opt/microchip/xc32/v4.35/bin/bin/../../lib/gcc/pic32mx/8.3.1/../../../../pic32mx/lib/fpu64/libc-musl.a(__pop_float.o)
 .note.GNU-stack
                0x0000000000000000        0x0 /opt/microchip/xc32/v4.35/bin/bin/../../lib/gcc/pic32mx/8.3.1/../../../../pic32mx/lib/fpu64/libc-musl.a(__pop_float.o)
 .reginfo       0x0000000000000000       0x18 /opt/microchip/xc32/v4.35/bin/bin/../../lib/gcc/pic32mx/8.3.1/../../../../pic32mx/lib/fpu64/libc-musl.a(__pop_int.o)
 .MIPS.abiflags
                0x0000000000000000       0x18 /opt/microchip/xc32/v4.35/bin/bin/../../lib/gcc/pic32mx/8.3.1/../../../../pic32mx/lib/fpu64/libc-musl.a(__pop_int.o)
 .xc_stack_usage
                0x0000000000000000       0x17 /opt/microchip/xc32/v4.35/bin/bin/../../lib/gcc/pic32mx/8.3.1/../../../../pic32mx/lib/fpu64/libc-musl.a(__pop_int.o)
 .xc_stack_usage.hdr
                0x0000000000000000        0xe /opt/microchip/xc32/v4.35/bin/bin/../../lib/gcc/pic32mx/8.3.1/../../../../pic32mx/lib/fpu64/libc-musl.a(__pop_int.o)
 .note.GNU-stack
                0x0000000000000000        0x0 /opt/microchip/xc32/v4.35/bin/bin/../../lib/gcc/pic32mx/8.3.1/../../../../pic32mx/lib/fpu64/libc-musl.a(__pop_int.o)
 .reginfo       0x0000000000000000       0x18 /opt/microchip/xc32/v4.35/bin/bin/../../lib/gcc/pic32mx/8.3.1/../../../../pic32mx/lib/fpu64/libc-musl.a(__pop_ptr.o)
 .MIPS.abiflags
                0x0000000000000000       0x18 /opt/microchip/xc32/v4.35/bin/bin/../../lib/gcc/pic32mx/8.3.1/../../../../pic32mx/lib/fpu64/libc-musl.a(__pop_ptr.o)
 .xc_stack_usage
                0x0000000000000000       0x17 /opt/microchip/xc32/v4.35/bin/bin/../../lib/gcc/pic32mx/8.3.1/../../../../pic32mx/lib/fpu64/libc-musl.a(__pop_ptr.o)
 .xc_stack_usage.hdr
                0x0000000000000000        0xe /opt/microchip/xc32/v4.35/bin/bin/../../lib/gcc/pic32mx/8.3.1/../../../../pic32mx/lib/fpu64/libc-musl.a(__pop_ptr.o)
 .note.GNU-stack
                0x0000000000000000        0x0 /opt/microchip/xc32/v4.35/bin/bin/../../lib/gcc/pic32mx/8.3.1/../../../../pic32mx/lib/fpu64/libc-musl.a(__pop_ptr.o)
 .reginfo       0x0000000000000000       0x18 /opt/microchip/xc32/v4.35/bin/bin/../../lib/gcc/pic32mx/8.3.1/../../../../pic32mx/lib/fpu64/libc-musl.a(__printf_core.o)
 .MIPS.abiflags
                0x0000000000000000       0x18 /opt/microchip/xc32/v4.35/bin/bin/../../lib/gcc/pic32mx/8.3.1/../../../../pic32mx/lib/fpu64/libc-musl.a(__printf_core.o)
 .xc_stack_usage
                0x0000000000000000       0xaf /opt/microchip/xc32/v4.35/bin/bin/../../lib/gcc/pic32mx/8.3.1/../../../../pic32mx/lib/fpu64/libc-musl.a(__printf_core.o)
 .xc_stack_usage.hdr
                0x0000000000000000        0xe /opt/microchip/xc32/v4.35/bin/bin/../../lib/gcc/pic32mx/8.3.1/../../../../pic32mx/lib/fpu64/libc-musl.a(__printf_core.o)
 .note.GNU-stack
                0x0000000000000000        0x0 /opt/microchip/xc32/v4.35/bin/bin/../../lib/gcc/pic32mx/8.3.1/../../../../pic32mx/lib/fpu64/libc-musl.a(__printf_core.o)
 .reginfo       0x0000000000000000       0x18 /opt/microchip/xc32/v4.35/bin/bin/../../lib/gcc/pic32mx/8.3.1/../../../../pic32mx/lib/fpu64/libc-musl.a(atoi.o)
 .MIPS.abiflags
                0x0000000000000000       0x18 /opt/microchip/xc32/v4.35/bin/bin/../../lib/gcc/pic32mx/8.3.1/../../../../pic32mx/lib/fpu64/libc-musl.a(atoi.o)
 .xc_stack_usage
                0x0000000000000000       0x12 /opt/microchip/xc32/v4.35/bin/bin/../../lib/gcc/pic32mx/8.3.1/../../../../pic32mx/lib/fpu64/libc-musl.a(atoi.o)
 .xc_stack_usage.hdr
                0x0000000000000000        0xe /opt/microchip/xc32/v4.35/bin/bin/../../lib/gcc/pic32mx/8.3.1/../../../../pic32mx/lib/fpu64/libc-musl.a(atoi.o)
 .note.GNU-stack
                0x0000000000000000        0x0 /opt/microchip/xc32/v4.35/bin/bin/../../lib/gcc/pic32mx/8.3.1/../../../../pic32mx/lib/fpu64/libc-musl.a(atoi.o)
 .reginfo       0x0000000000000000       0x18 /opt/microchip/xc32/v4.35/bin/bin/../../lib/gcc/pic32mx/8.3.1/../../../../pic32mx/lib/fpu64/libc-musl.a(__month_to_secs.o)
 .MIPS.abiflags
                0x0000000000000000       0x18 /opt/microchip/xc32/v4.35/bin/bin/../../lib/gcc/pic32mx/8.3.1/../../../../pic32mx/lib/fpu64/libc-musl.a(__month_to_secs.o)
 .xc_stack_usage
                0x0000000000000000       0x1d /opt/microchip/xc32/v4.35/bin/bin/../../lib/gcc/pic32mx/8.3.1/../../../../pic32mx/lib/fpu64/libc-musl.a(__month_to_secs.o)
 .xc_stack_usage.hdr
                0x0000000000000000        0xe /opt/microchip/xc32/v4.35/bin/bin/../../lib/gcc/pic32mx/8.3.1/../../../../pic32mx/lib/fpu64/libc-musl.a(__month_to_secs.o)
 .note.GNU-stack
                0x0000000000000000        0x0 /opt/microchip/xc32/v4.35/bin/bin/../../lib/gcc/pic32mx/8.3.1/../../../../pic32mx/lib/fpu64/libc-musl.a(__month_to_secs.o)
 .reginfo       0x0000000000000000       0x18 /opt/microchip/xc32/v4.35/bin/bin/../../lib/gcc/pic32mx/8.3.1/../../../../pic32mx/lib/fpu64/libc-musl.a(tolower.o)
 .MIPS.abiflags
                0x0000000000000000       0x18 /opt/microchip/xc32/v4.35/bin/bin/../../lib/gcc/pic32mx/8.3.1/../../../../pic32mx/lib/fpu64/libc-musl.a(tolower.o)
 .xc_stack_usage
                0x0000000000000000       0x2e /opt/microchip/xc32/v4.35/bin/bin/../../lib/gcc/pic32mx/8.3.1/../../../../pic32mx/lib/fpu64/libc-musl.a(tolower.o)
 .xc_stack_usage.hdr
                0x0000000000000000        0xe /opt/microchip/xc32/v4.35/bin/bin/../../lib/gcc/pic32mx/8.3.1/../../../../pic32mx/lib/fpu64/libc-musl.a(tolower.o)
 .note.GNU-stack
                0x0000000000000000        0x0 /opt/microchip/xc32/v4.35/bin/bin/../../lib/gcc/pic32mx/8.3.1/../../../../pic32mx/lib/fpu64/libc-musl.a(tolower.o)
 .reginfo       0x0000000000000000       0x18 /opt/microchip/xc32/v4.35/bin/bin/../../lib/gcc/pic32mx/8.3.1/../../../../pic32mx/lib/fpu64/libc-musl.a(__fmt_a.o)
 .MIPS.abiflags
                0x0000000000000000       0x18 /opt/microchip/xc32/v4.35/bin/bin/../../lib/gcc/pic32mx/8.3.1/../../../../pic32mx/lib/fpu64/libc-musl.a(__fmt_a.o)
 .xc_stack_usage
                0x0000000000000000       0x15 /opt/microchip/xc32/v4.35/bin/bin/../../lib/gcc/pic32mx/8.3.1/../../../../pic32mx/lib/fpu64/libc-musl.a(__fmt_a.o)
 .xc_stack_usage.hdr
                0x0000000000000000        0xe /opt/microchip/xc32/v4.35/bin/bin/../../lib/gcc/pic32mx/8.3.1/../../../../pic32mx/lib/fpu64/libc-musl.a(__fmt_a.o)
 .note.GNU-stack
                0x0000000000000000        0x0 /opt/microchip/xc32/v4.35/bin/bin/../../lib/gcc/pic32mx/8.3.1/../../../../pic32mx/lib/fpu64/libc-musl.a(__fmt_a.o)
 .reginfo       0x0000000000000000       0x18 /opt/microchip/xc32/v4.35/bin/bin/../../lib/gcc/pic32mx/8.3.1/../../../../pic32mx/lib/fpu64/libc-musl.a(__fmt_d.o)
 .MIPS.abiflags
                0x0000000000000000       0x18 /opt/microchip/xc32/v4.35/bin/bin/../../lib/gcc/pic32mx/8.3.1/../../../../pic32mx/lib/fpu64/libc-musl.a(__fmt_d.o)
 .xc_stack_usage
                0x0000000000000000       0x15 /opt/microchip/xc32/v4.35/bin/bin/../../lib/gcc/pic32mx/8.3.1/../../../../pic32mx/lib/fpu64/libc-musl.a(__fmt_d.o)
 .xc_stack_usage.hdr
                0x0000000000000000        0xe /opt/microchip/xc32/v4.35/bin/bin/../../lib/gcc/pic32mx/8.3.1/../../../../pic32mx/lib/fpu64/libc-musl.a(__fmt_d.o)
 .note.GNU-stack
                0x0000000000000000        0x0 /opt/microchip/xc32/v4.35/bin/bin/../../lib/gcc/pic32mx/8.3.1/../../../../pic32mx/lib/fpu64/libc-musl.a(__fmt_d.o)
 .reginfo       0x0000000000000000       0x18 /opt/microchip/xc32/v4.35/bin/bin/../../lib/gcc/pic32mx/8.3.1/../../../../pic32mx/lib/fpu64/libc-musl.a(__fmt_fp.o)
 .MIPS.abiflags
                0x0000000000000000       0x18 /opt/microchip/xc32/v4.35/bin/bin/../../lib/gcc/pic32mx/8.3.1/../../../../pic32mx/lib/fpu64/libc-musl.a(__fmt_fp.o)
 .xc_stack_usage
                0x0000000000000000       0x16 /opt/microchip/xc32/v4.35/bin/bin/../../lib/gcc/pic32mx/8.3.1/../../../../pic32mx/lib/fpu64/libc-musl.a(__fmt_fp.o)
 .xc_stack_usage.hdr
                0x0000000000000000        0xe /opt/microchip/xc32/v4.35/bin/bin/../../lib/gcc/pic32mx/8.3.1/../../../../pic32mx/lib/fpu64/libc-musl.a(__fmt_fp.o)
 .note.GNU-stack
                0x0000000000000000        0x0 /opt/microchip/xc32/v4.35/bin/bin/../../lib/gcc/pic32mx/8.3.1/../../../../pic32mx/lib/fpu64/libc-musl.a(__fmt_fp.o)
 .reginfo       0x0000000000000000       0x18 /opt/microchip/xc32/v4.35/bin/bin/../../lib/gcc/pic32mx/8.3.1/../../../../pic32mx/lib/fpu64/libc-musl.a(__fmt_o.o)
 .MIPS.abiflags
                0x0000000000000000       0x18 /opt/microchip/xc32/v4.35/bin/bin/../../lib/gcc/pic32mx/8.3.1/../../../../pic32mx/lib/fpu64/libc-musl.a(__fmt_o.o)
 .xc_stack_usage
                0x0000000000000000       0x15 /opt/microchip/xc32/v4.35/bin/bin/../../lib/gcc/pic32mx/8.3.1/../../../../pic32mx/lib/fpu64/libc-musl.a(__fmt_o.o)
 .xc_stack_usage.hdr
                0x0000000000000000        0xe /opt/microchip/xc32/v4.35/bin/bin/../../lib/gcc/pic32mx/8.3.1/../../../../pic32mx/lib/fpu64/libc-musl.a(__fmt_o.o)
 .note.GNU-stack
                0x0000000000000000        0x0 /opt/microchip/xc32/v4.35/bin/bin/../../lib/gcc/pic32mx/8.3.1/../../../../pic32mx/lib/fpu64/libc-musl.a(__fmt_o.o)
 .reginfo       0x0000000000000000       0x18 /opt/microchip/xc32/v4.35/bin/bin/../../lib/gcc/pic32mx/8.3.1/../../../../pic32mx/lib/fpu64/libc-musl.a(__fmt_s.o)
 .MIPS.abiflags
                0x0000000000000000       0x18 /opt/microchip/xc32/v4.35/bin/bin/../../lib/gcc/pic32mx/8.3.1/../../../../pic32mx/lib/fpu64/libc-musl.a(__fmt_s.o)
 .xc_stack_usage
                0x0000000000000000       0x15 /opt/microchip/xc32/v4.35/bin/bin/../../lib/gcc/pic32mx/8.3.1/../../../../pic32mx/lib/fpu64/libc-musl.a(__fmt_s.o)
 .xc_stack_usage.hdr
                0x0000000000000000        0xe /opt/microchip/xc32/v4.35/bin/bin/../../lib/gcc/pic32mx/8.3.1/../../../../pic32mx/lib/fpu64/libc-musl.a(__fmt_s.o)
 .note.GNU-stack
                0x0000000000000000        0x0 /opt/microchip/xc32/v4.35/bin/bin/../../lib/gcc/pic32mx/8.3.1/../../../../pic32mx/lib/fpu64/libc-musl.a(__fmt_s.o)
 .reginfo       0x0000000000000000       0x18 /opt/microchip/xc32/v4.35/bin/bin/../../lib/gcc/pic32mx/8.3.1/../../../../pic32mx/lib/fpu64/libc-musl.a(__fmt_u.o)
 .MIPS.abiflags
                0x0000000000000000       0x18 /opt/microchip/xc32/v4.35/bin/bin/../../lib/gcc/pic32mx/8.3.1/../../../../pic32mx/lib/fpu64/libc-musl.a(__fmt_u.o)
 .xc_stack_usage
                0x0000000000000000       0x15 /opt/microchip/xc32/v4.35/bin/bin/../../lib/gcc/pic32mx/8.3.1/../../../../pic32mx/lib/fpu64/libc-musl.a(__fmt_u.o)
 .xc_stack_usage.hdr
                0x0000000000000000        0xe /opt/microchip/xc32/v4.35/bin/bin/../../lib/gcc/pic32mx/8.3.1/../../../../pic32mx/lib/fpu64/libc-musl.a(__fmt_u.o)
 .note.GNU-stack
                0x0000000000000000        0x0 /opt/microchip/xc32/v4.35/bin/bin/../../lib/gcc/pic32mx/8.3.1/../../../../pic32mx/lib/fpu64/libc-musl.a(__fmt_u.o)
 .reginfo       0x0000000000000000       0x18 /opt/microchip/xc32/v4.35/bin/bin/../../lib/gcc/pic32mx/8.3.1/../../../../pic32mx/lib/fpu64/libc-musl.a(__fmt_x.o)
 .MIPS.abiflags
                0x0000000000000000       0x18 /opt/microchip/xc32/v4.35/bin/bin/../../lib/gcc/pic32mx/8.3.1/../../../../pic32mx/lib/fpu64/libc-musl.a(__fmt_x.o)
 .xc_stack_usage
                0x0000000000000000       0x15 /opt/microchip/xc32/v4.35/bin/bin/../../lib/gcc/pic32mx/8.3.1/../../../../pic32mx/lib/fpu64/libc-musl.a(__fmt_x.o)
 .xc_stack_usage.hdr
                0x0000000000000000        0xe /opt/microchip/xc32/v4.35/bin/bin/../../lib/gcc/pic32mx/8.3.1/../../../../pic32mx/lib/fpu64/libc-musl.a(__fmt_x.o)
 .note.GNU-stack
                0x0000000000000000        0x0 /opt/microchip/xc32/v4.35/bin/bin/../../lib/gcc/pic32mx/8.3.1/../../../../pic32mx/lib/fpu64/libc-musl.a(__fmt_x.o)
 .reginfo       0x0000000000000000       0x18 /opt/microchip/xc32/v4.35/bin/bin/../../lib/gcc/pic32mx/8.3.1/../../../../pic32mx/lib/fpu64/libc-musl.a(strcpy.o)
 .MIPS.abiflags
                0x0000000000000000       0x18 /opt/microchip/xc32/v4.35/bin/bin/../../lib/gcc/pic32mx/8.3.1/../../../../pic32mx/lib/fpu64/libc-musl.a(strcpy.o)
 .xc_stack_usage
                0x0000000000000000       0x14 /opt/microchip/xc32/v4.35/bin/bin/../../lib/gcc/pic32mx/8.3.1/../../../../pic32mx/lib/fpu64/libc-musl.a(strcpy.o)
 .xc_stack_usage.hdr
                0x0000000000000000        0xe /opt/microchip/xc32/v4.35/bin/bin/../../lib/gcc/pic32mx/8.3.1/../../../../pic32mx/lib/fpu64/libc-musl.a(strcpy.o)
 .note.GNU-stack
                0x0000000000000000        0x0 /opt/microchip/xc32/v4.35/bin/bin/../../lib/gcc/pic32mx/8.3.1/../../../../pic32mx/lib/fpu64/libc-musl.a(strcpy.o)
 .reginfo       0x0000000000000000       0x18 /opt/microchip/xc32/v4.35/bin/bin/../../lib/gcc/pic32mx/8.3.1/../../../../pic32mx/lib/fpu64/libc-musl.a(toupper.o)
 .MIPS.abiflags
                0x0000000000000000       0x18 /opt/microchip/xc32/v4.35/bin/bin/../../lib/gcc/pic32mx/8.3.1/../../../../pic32mx/lib/fpu64/libc-musl.a(toupper.o)
 .xc_stack_usage
                0x0000000000000000       0x2e /opt/microchip/xc32/v4.35/bin/bin/../../lib/gcc/pic32mx/8.3.1/../../../../pic32mx/lib/fpu64/libc-musl.a(toupper.o)
 .xc_stack_usage.hdr
                0x0000000000000000        0xe /opt/microchip/xc32/v4.35/bin/bin/../../lib/gcc/pic32mx/8.3.1/../../../../pic32mx/lib/fpu64/libc-musl.a(toupper.o)
 .note.GNU-stack
                0x0000000000000000        0x0 /opt/microchip/xc32/v4.35/bin/bin/../../lib/gcc/pic32mx/8.3.1/../../../../pic32mx/lib/fpu64/libc-musl.a(toupper.o)
 .reginfo       0x0000000000000000       0x18 /opt/microchip/xc32/v4.35/bin/bin/../../lib/gcc/pic32mx/8.3.1/../../../../pic32mx/lib/fpu64/libc-musl.a(__cvt_u.o)
 .MIPS.abiflags
                0x0000000000000000       0x18 /opt/microchip/xc32/v4.35/bin/bin/../../lib/gcc/pic32mx/8.3.1/../../../../pic32mx/lib/fpu64/libc-musl.a(__cvt_u.o)
 .xc_stack_usage
                0x0000000000000000       0x15 /opt/microchip/xc32/v4.35/bin/bin/../../lib/gcc/pic32mx/8.3.1/../../../../pic32mx/lib/fpu64/libc-musl.a(__cvt_u.o)
 .xc_stack_usage.hdr
                0x0000000000000000        0xe /opt/microchip/xc32/v4.35/bin/bin/../../lib/gcc/pic32mx/8.3.1/../../../../pic32mx/lib/fpu64/libc-musl.a(__cvt_u.o)
 .note.GNU-stack
                0x0000000000000000        0x0 /opt/microchip/xc32/v4.35/bin/bin/../../lib/gcc/pic32mx/8.3.1/../../../../pic32mx/lib/fpu64/libc-musl.a(__cvt_u.o)
 .reginfo       0x0000000000000000       0x18 /opt/microchip/xc32/v4.35/bin/bin/../../lib/gcc/pic32mx/8.3.1/../../../../pic32mx/lib/fpu64/libc-musl.a(stpcpy.o)
 .MIPS.abiflags
                0x0000000000000000       0x18 /opt/microchip/xc32/v4.35/bin/bin/../../lib/gcc/pic32mx/8.3.1/../../../../pic32mx/lib/fpu64/libc-musl.a(stpcpy.o)
 .xc_stack_usage
                0x0000000000000000       0x14 /opt/microchip/xc32/v4.35/bin/bin/../../lib/gcc/pic32mx/8.3.1/../../../../pic32mx/lib/fpu64/libc-musl.a(stpcpy.o)
 .xc_stack_usage.hdr
                0x0000000000000000        0xe /opt/microchip/xc32/v4.35/bin/bin/../../lib/gcc/pic32mx/8.3.1/../../../../pic32mx/lib/fpu64/libc-musl.a(stpcpy.o)
 .note.GNU-stack
                0x0000000000000000        0x0 /opt/microchip/xc32/v4.35/bin/bin/../../lib/gcc/pic32mx/8.3.1/../../../../pic32mx/lib/fpu64/libc-musl.a(stpcpy.o)
 .reginfo       0x0000000000000000       0x18 /opt/microchip/xc32/v4.35/bin/bin/../../lib/gcc/pic32mx/8.3.1/../../../../pic32mx/lib/fpu64/libm-musl.a(floor.o)
 .MIPS.abiflags
                0x0000000000000000       0x18 /opt/microchip/xc32/v4.35/bin/bin/../../lib/gcc/pic32mx/8.3.1/../../../../pic32mx/lib/fpu64/libm-musl.a(floor.o)
 .xc_stack_usage
                0x0000000000000000       0x13 /opt/microchip/xc32/v4.35/bin/bin/../../lib/gcc/pic32mx/8.3.1/../../../../pic32mx/lib/fpu64/libm-musl.a(floor.o)
 .xc_stack_usage.hdr
                0x0000000000000000        0xe /opt/microchip/xc32/v4.35/bin/bin/../../lib/gcc/pic32mx/8.3.1/../../../../pic32mx/lib/fpu64/libm-musl.a(floor.o)
 .note.GNU-stack
                0x0000000000000000        0x0 /opt/microchip/xc32/v4.35/bin/bin/../../lib/gcc/pic32mx/8.3.1/../../../../pic32mx/lib/fpu64/libm-musl.a(floor.o)
 .reginfo       0x0000000000000000       0x18 /opt/microchip/xc32/v4.35/bin/bin/../../lib/gcc/pic32mx/8.3.1/../../../../pic32mx/lib/fpu64/libm-musl.a(fma.o)
 .MIPS.abiflags
                0x0000000000000000       0x18 /opt/microchip/xc32/v4.35/bin/bin/../../lib/gcc/pic32mx/8.3.1/../../../../pic32mx/lib/fpu64/libm-musl.a(fma.o)
 .xc_stack_usage
                0x0000000000000000       0x3e /opt/microchip/xc32/v4.35/bin/bin/../../lib/gcc/pic32mx/8.3.1/../../../../pic32mx/lib/fpu64/libm-musl.a(fma.o)
 .xc_stack_usage.hdr
                0x0000000000000000        0xe /opt/microchip/xc32/v4.35/bin/bin/../../lib/gcc/pic32mx/8.3.1/../../../../pic32mx/lib/fpu64/libm-musl.a(fma.o)
 .note.GNU-stack
                0x0000000000000000        0x0 /opt/microchip/xc32/v4.35/bin/bin/../../lib/gcc/pic32mx/8.3.1/../../../../pic32mx/lib/fpu64/libm-musl.a(fma.o)
 .reginfo       0x0000000000000000       0x18 /opt/microchip/xc32/v4.35/bin/bin/../../lib/gcc/pic32mx/8.3.1/../../../../pic32mx/lib/fpu64/libm-musl.a(scalbn.o)
 .MIPS.abiflags
                0x0000000000000000       0x18 /opt/microchip/xc32/v4.35/bin/bin/../../lib/gcc/pic32mx/8.3.1/../../../../pic32mx/lib/fpu64/libm-musl.a(scalbn.o)
 .xc_stack_usage
                0x0000000000000000       0x14 /opt/microchip/xc32/v4.35/bin/bin/../../lib/gcc/pic32mx/8.3.1/../../../../pic32mx/lib/fpu64/libm-musl.a(scalbn.o)
 .xc_stack_usage.hdr
                0x0000000000000000        0xe /opt/microchip/xc32/v4.35/bin/bin/../../lib/gcc/pic32mx/8.3.1/../../../../pic32mx/lib/fpu64/libm-musl.a(scalbn.o)
 .note.GNU-stack
                0x0000000000000000        0x0 /opt/microchip/xc32/v4.35/bin/bin/../../lib/gcc/pic32mx/8.3.1/../../../../pic32mx/lib/fpu64/libm-musl.a(scalbn.o)
 .reginfo       0x0000000000000000       0x18 /opt/microchip/xc32/v4.35/bin/bin/../../lib/gcc/pic32mx/8.3.1/fpu64/libgcc.a(_lshrdi3.o)
 .MIPS.abiflags
                0x0000000000000000       0x18 /opt/microchip/xc32/v4.35/bin/bin/../../lib/gcc/pic32mx/8.3.1/fpu64/libgcc.a(_lshrdi3.o)
 .xc_stack_usage
                0x0000000000000000       0x17 /opt/microchip/xc32/v4.35/bin/bin/../../lib/gcc/pic32mx/8.3.1/fpu64/libgcc.a(_lshrdi3.o)
 .xc_stack_usage.hdr
                0x0000000000000000        0xe /opt/microchip/xc32/v4.35/bin/bin/../../lib/gcc/pic32mx/8.3.1/fpu64/libgcc.a(_lshrdi3.o)
 .reginfo       0x0000000000000000       0x18 /opt/microchip/xc32/v4.35/bin/bin/../../lib/gcc/pic32mx/8.3.1/fpu64/libgcc.a(_ashldi3.o)
 .MIPS.abiflags
                0x0000000000000000       0x18 /opt/microchip/xc32/v4.35/bin/bin/../../lib/gcc/pic32mx/8.3.1/fpu64/libgcc.a(_ashldi3.o)
 .xc_stack_usage
                0x0000000000000000       0x17 /opt/microchip/xc32/v4.35/bin/bin/../../lib/gcc/pic32mx/8.3.1/fpu64/libgcc.a(_ashldi3.o)
 .xc_stack_usage.hdr
                0x0000000000000000        0xe /opt/microchip/xc32/v4.35/bin/bin/../../lib/gcc/pic32mx/8.3.1/fpu64/libgcc.a(_ashldi3.o)
 .reginfo       0x0000000000000000       0x18 /opt/microchip/xc32/v4.35/bin/bin/../../lib/gcc/pic32mx/8.3.1/fpu64/libgcc.a(_divdi3.o)
 .MIPS.abiflags
                0x0000000000000000       0x18 /opt/microchip/xc32/v4.35/bin/bin/../../lib/gcc/pic32mx/8.3.1/fpu64/libgcc.a(_divdi3.o)
 .xc_stack_usage
                0x0000000000000000       0x16 /opt/microchip/xc32/v4.35/bin/bin/../../lib/gcc/pic32mx/8.3.1/fpu64/libgcc.a(_divdi3.o)
 .xc_stack_usage.hdr
                0x0000000000000000        0xe /opt/microchip/xc32/v4.35/bin/bin/../../lib/gcc/pic32mx/8.3.1/fpu64/libgcc.a(_divdi3.o)
 .reginfo       0x0000000000000000       0x18 /opt/microchip/xc32/v4.35/bin/bin/../../lib/gcc/pic32mx/8.3.1/fpu64/libgcc.a(_moddi3.o)
 .MIPS.abiflags
                0x0000000000000000       0x18 /opt/microchip/xc32/v4.35/bin/bin/../../lib/gcc/pic32mx/8.3.1/fpu64/libgcc.a(_moddi3.o)
 .xc_stack_usage
                0x0000000000000000       0x16 /opt/microchip/xc32/v4.35/bin/bin/../../lib/gcc/pic32mx/8.3.1/fpu64/libgcc.a(_moddi3.o)
 .xc_stack_usage.hdr
                0x0000000000000000        0xe /opt/microchip/xc32/v4.35/bin/bin/../../lib/gcc/pic32mx/8.3.1/fpu64/libgcc.a(_moddi3.o)
 .reginfo       0x0000000000000000       0x18 /opt/microchip/xc32/v4.35/bin/bin/../../lib/gcc/pic32mx/8.3.1/fpu64/libgcc.a(_umoddi3.o)
 .MIPS.abiflags
                0x0000000000000000       0x18 /opt/microchip/xc32/v4.35/bin/bin/../../lib/gcc/pic32mx/8.3.1/fpu64/libgcc.a(_umoddi3.o)
 .xc_stack_usage
                0x0000000000000000       0x17 /opt/microchip/xc32/v4.35/bin/bin/../../lib/gcc/pic32mx/8.3.1/fpu64/libgcc.a(_umoddi3.o)
 .xc_stack_usage.hdr
                0x0000000000000000        0xe /opt/microchip/xc32/v4.35/bin/bin/../../lib/gcc/pic32mx/8.3.1/fpu64/libgcc.a(_umoddi3.o)
 .reginfo       0x0000000000000000       0x18 /opt/microchip/xc32/v4.35/bin/bin/../../lib/gcc/pic32mx/8.3.1/../../../../pic32mx/lib/fpu64/libpic32.a(errno.o)
 .MIPS.abiflags
                0x0000000000000000       0x18 /opt/microchip/xc32/v4.35/bin/bin/../../lib/gcc/pic32mx/8.3.1/../../../../pic32mx/lib/fpu64/libpic32.a(errno.o)
 .xc_stack_usage.hdr
                0x0000000000000000        0xe /opt/microchip/xc32/v4.35/bin/bin/../../lib/gcc/pic32mx/8.3.1/../../../../pic32mx/lib/fpu64/libpic32.a(errno.o)
 .reginfo       0x0000000000000000       0x18 /opt/microchip/xc32/v4.35/bin/bin/../../lib/gcc/pic32mx/8.3.1/../../../../pic32mx/lib/fpu64/libpic32.a(pic32_data_init_clear.o)
 .MIPS.abiflags
                0x0000000000000000       0x18 /opt/microchip/xc32/v4.35/bin/bin/../../lib/gcc/pic32mx/8.3.1/../../../../pic32mx/lib/fpu64/libpic32.a(pic32_data_init_clear.o)
 .xc_stack_usage.hdr
                0x0000000000000000        0xe /opt/microchip/xc32/v4.35/bin/bin/../../lib/gcc/pic32mx/8.3.1/../../../../pic32mx/lib/fpu64/libpic32.a(pic32_data_init_clear.o)
 .xc_stack_usage
                0x0000000000000000       0x1b /opt/microchip/xc32/v4.35/bin/bin/../../lib/gcc/pic32mx/8.3.1/../../../../pic32mx/lib/fpu64/libpic32.a(pic32_data_init_clear.o)
 .reginfo       0x0000000000000000       0x18 /opt/microchip/xc32/v4.35/bin/bin/../../lib/gcc/pic32mx/8.3.1/../../../../pic32mx/lib/fpu64/libpic32.a(pic32_data_init_copy.o)
 .MIPS.abiflags
                0x0000000000000000       0x18 /opt/microchip/xc32/v4.35/bin/bin/../../lib/gcc/pic32mx/8.3.1/../../../../pic32mx/lib/fpu64/libpic32.a(pic32_data_init_copy.o)
 .xc_stack_usage.hdr
                0x0000000000000000        0xe /opt/microchip/xc32/v4.35/bin/bin/../../lib/gcc/pic32mx/8.3.1/../../../../pic32mx/lib/fpu64/libpic32.a(pic32_data_init_copy.o)
 .xc_stack_usage
                0x0000000000000000       0x1a /opt/microchip/xc32/v4.35/bin/bin/../../lib/gcc/pic32mx/8.3.1/../../../../pic32mx/lib/fpu64/libpic32.a(pic32_data_init_copy.o)

Memory Configuration

Name             Origin             Length             Attributes
kseg0_program_mem 0x000000009d000000 0x0000000000200000 xr
kseg0_boot_mem   0x000000009fc004b0 0x0000000000000000
kseg1_boot_mem   0x00000000bfc00000 0x0000000000000480
kseg1_boot_mem_4B0 0x00000000bfc004b0 0x000000000000fa50
config_BFC0FF40  0x00000000bfc0ff40 0x0000000000000004
config_BFC0FF44  0x00000000bfc0ff44 0x0000000000000004
config_BFC0FF48  0x00000000bfc0ff48 0x0000000000000004
config_BFC0FF4C  0x00000000bfc0ff4c 0x0000000000000004
config_BFC0FF50  0x00000000bfc0ff50 0x0000000000000004
config_BFC0FF54  0x00000000bfc0ff54 0x0000000000000004
config_BFC0FF58  0x00000000bfc0ff58 0x0000000000000004
config_BFC0FF5C  0x00000000bfc0ff5c 0x0000000000000004
config_BFC0FF60  0x00000000bfc0ff60 0x0000000000000004
config_BFC0FF64  0x00000000bfc0ff64 0x0000000000000004
config_BFC0FF68  0x00000000bfc0ff68 0x0000000000000004
config_BFC0FF6C  0x00000000bfc0ff6c 0x0000000000000004
config_BFC0FF70  0x00000000bfc0ff70 0x0000000000000004
config_BFC0FF74  0x00000000bfc0ff74 0x0000000000000004
config_BFC0FF78  0x00000000bfc0ff78 0x0000000000000004
config_BFC0FF7C  0x00000000bfc0ff7c 0x0000000000000004
config_BFC0FFC0  0x00000000bfc0ffc0 0x0000000000000004
config_BFC0FFC4  0x00000000bfc0ffc4 0x0000000000000004
config_BFC0FFC8  0x00000000bfc0ffc8 0x0000000000000004
config_BFC0FFCC  0x00000000bfc0ffcc 0x0000000000000004
config_BFC0FFD0  0x00000000bfc0ffd0 0x0000000000000004
config_BFC0FFD4  0x00000000bfc0ffd4 0x0000000000000004
config_BFC0FFD8  0x00000000bfc0ffd8 0x0000000000000004
config_BFC0FFDC  0x00000000bfc0ffdc 0x0000000000000004
config_BFC0FFE0  0x00000000bfc0ffe0 0x0000000000000004
config_BFC0FFE4  0x00000000bfc0ffe4 0x0000000000000004
config_BFC0FFE8  0x00000000bfc0ffe8 0x0000000000000004
config_BFC0FFEC  0x00000000bfc0ffec 0x0000000000000004
config_BFC0FFF0  0x00000000bfc0fff0 0x0000000000000004
config_BFC0FFF4  0x00000000bfc0fff4 0x0000000000000004
config_BFC0FFF8  0x00000000bfc0fff8 0x0000000000000004
config_BFC0FFFC  0x00000000bfc0fffc 0x0000000000000004
lowerbootaliaslastpage 0x00000000bfc10000 0x0000000000004000
upperbootalias   0x00000000bfc20000 0x000000000000ff00
config_BFC2FF40  0x00000000bfc2ff40 0x0000000000000004
config_BFC2FF44  0x00000000bfc2ff44 0x0000000000000004
config_BFC2FF48  0x00000000bfc2ff48 0x0000000000000004
config_BFC2FF4C  0x00000000bfc2ff4c 0x0000000000000004
config_BFC2FF50  0x00000000bfc2ff50 0x0000000000000004
config_BFC2FF54  0x00000000bfc2ff54 0x0000000000000004
config_BFC2FF58  0x00000000bfc2ff58 0x0000000000000004
config_BFC2FF5C  0x00000000bfc2ff5c 0x0000000000000004
config_BFC2FF60  0x00000000bfc2ff60 0x0000000000000004
config_BFC2FF64  0x00000000bfc2ff64 0x0000000000000004
config_BFC2FF68  0x00000000bfc2ff68 0x0000000000000004
config_BFC2FF6C  0x00000000bfc2ff6c 0x0000000000000004
config_BFC2FF70  0x00000000bfc2ff70 0x0000000000000004
config_BFC2FF74  0x00000000bfc2ff74 0x0000000000000004
config_BFC2FF78  0x00000000bfc2ff78 0x0000000000000004
config_BFC2FF7C  0x00000000bfc2ff7c 0x0000000000000004
config_BFC2FFC0  0x00000000bfc2ffc0 0x0000000000000004
config_BFC2FFC4  0x00000000bfc2ffc4 0x0000000000000004
config_BFC2FFC8  0x00000000bfc2ffc8 0x0000000000000004
config_BFC2FFCC  0x00000000bfc2ffcc 0x0000000000000004
config_BFC2FFD0  0x00000000bfc2ffd0 0x0000000000000004
config_BFC2FFD4  0x00000000bfc2ffd4 0x0000000000000004
config_BFC2FFD8  0x00000000bfc2ffd8 0x0000000000000004
config_BFC2FFDC  0x00000000bfc2ffdc 0x0000000000000004
config_BFC2FFE0  0x00000000bfc2ffe0 0x0000000000000004
config_BFC2FFE4  0x00000000bfc2ffe4 0x0000000000000004
config_BFC2FFE8  0x00000000bfc2ffe8 0x0000000000000004
config_BFC2FFEC  0x00000000bfc2ffec 0x0000000000000004
config_BFC2FFF0  0x00000000bfc2fff0 0x0000000000000004
config_BFC2FFF4  0x00000000bfc2fff4 0x0000000000000004
config_BFC2FFF8  0x00000000bfc2fff8 0x0000000000000004
config_BFC2FFFC  0x00000000bfc2fffc 0x0000000000000004
upperbootaliaslastpage 0x00000000bfc30000 0x0000000000004000
boot1            0x00000000bfc40000 0x000000000000ff00
config_BFC4FF40  0x00000000bfc4ff40 0x0000000000000004
config_BFC4FF44  0x00000000bfc4ff44 0x0000000000000004
config_BFC4FF48  0x00000000bfc4ff48 0x0000000000000004
config_BFC4FF4C  0x00000000bfc4ff4c 0x0000000000000004
config_BFC4FF50  0x00000000bfc4ff50 0x0000000000000004
config_BFC4FF54  0x00000000bfc4ff54 0x0000000000000004
config_BFC4FF58  0x00000000bfc4ff58 0x0000000000000004
config_BFC4FF5C  0x00000000bfc4ff5c 0x0000000000000004
config_BFC4FF60  0x00000000bfc4ff60 0x0000000000000004
config_BFC4FF64  0x00000000bfc4ff64 0x0000000000000004
config_BFC4FF68  0x00000000bfc4ff68 0x0000000000000004
config_BFC4FF6C  0x00000000bfc4ff6c 0x0000000000000004
config_BFC4FF70  0x00000000bfc4ff70 0x0000000000000004
config_BFC4FF74  0x00000000bfc4ff74 0x0000000000000004
config_BFC4FF78  0x00000000bfc4ff78 0x0000000000000004
config_BFC4FF7C  0x00000000bfc4ff7c 0x0000000000000004
config_BFC4FFC0  0x00000000bfc4ffc0 0x0000000000000004
config_BFC4FFC4  0x00000000bfc4ffc4 0x0000000000000004
config_BFC4FFC8  0x00000000bfc4ffc8 0x0000000000000004
config_BFC4FFCC  0x00000000bfc4ffcc 0x0000000000000004
config_BFC4FFD0  0x00000000bfc4ffd0 0x0000000000000004
config_BFC4FFD4  0x00000000bfc4ffd4 0x0000000000000004
config_BFC4FFD8  0x00000000bfc4ffd8 0x0000000000000004
config_BFC4FFDC  0x00000000bfc4ffdc 0x0000000000000004
config_BFC4FFE0  0x00000000bfc4ffe0 0x0000000000000004
config_BFC4FFE4  0x00000000bfc4ffe4 0x0000000000000004
config_BFC4FFE8  0x00000000bfc4ffe8 0x0000000000000004
config_BFC4FFEC  0x00000000bfc4ffec 0x0000000000000004
config_BFC4FFF0  0x00000000bfc4fff0 0x0000000000000004
config_BFC4FFF4  0x00000000bfc4fff4 0x0000000000000004
config_BFC4FFF8  0x00000000bfc4fff8 0x0000000000000004
config_BFC4FFFC  0x00000000bfc4fffc 0x0000000000000004
boot1lastpage    0x00000000bfc50000 0x0000000000004000
config_BFC54000  0x00000000bfc54000 0x0000000000000004
config_BFC54004  0x00000000bfc54004 0x0000000000000004
config_BFC54008  0x00000000bfc54008 0x0000000000000004
config_BFC5400C  0x00000000bfc5400c 0x0000000000000004
config_BFC54010  0x00000000bfc54010 0x0000000000000004
config_BFC5401C  0x00000000bfc5401c 0x0000000000000004
config_BFC54020  0x00000000bfc54020 0x0000000000000004
config_BFC54024  0x00000000bfc54024 0x0000000000000004
boot2            0x00000000bfc60000 0x000000000000ff00
config_BFC6FF40  0x00000000bfc6ff40 0x0000000000000004
config_BFC6FF44  0x00000000bfc6ff44 0x0000000000000004
config_BFC6FF48  0x00000000bfc6ff48 0x0000000000000004
config_BFC6FF4C  0x00000000bfc6ff4c 0x0000000000000004
config_BFC6FF50  0x00000000bfc6ff50 0x0000000000000004
config_BFC6FF54  0x00000000bfc6ff54 0x0000000000000004
config_BFC6FF58  0x00000000bfc6ff58 0x0000000000000004
config_BFC6FF5C  0x00000000bfc6ff5c 0x0000000000000004
config_BFC6FF60  0x00000000bfc6ff60 0x0000000000000004
config_BFC6FF64  0x00000000bfc6ff64 0x0000000000000004
config_BFC6FF68  0x00000000bfc6ff68 0x0000000000000004
config_BFC6FF6C  0x00000000bfc6ff6c 0x0000000000000004
config_BFC6FF70  0x00000000bfc6ff70 0x0000000000000004
config_BFC6FF74  0x00000000bfc6ff74 0x0000000000000004
config_BFC6FF78  0x00000000bfc6ff78 0x0000000000000004
config_BFC6FF7C  0x00000000bfc6ff7c 0x0000000000000004
config_BFC6FFC0  0x00000000bfc6ffc0 0x0000000000000004
config_BFC6FFC4  0x00000000bfc6ffc4 0x0000000000000004
config_BFC6FFC8  0x00000000bfc6ffc8 0x0000000000000004
config_BFC6FFCC  0x00000000bfc6ffcc 0x0000000000000004
config_BFC6FFD0  0x00000000bfc6ffd0 0x0000000000000004
config_BFC6FFD4  0x00000000bfc6ffd4 0x0000000000000004
config_BFC6FFD8  0x00000000bfc6ffd8 0x0000000000000004
config_BFC6FFDC  0x00000000bfc6ffdc 0x0000000000000004
config_BFC6FFE0  0x00000000bfc6ffe0 0x0000000000000004
config_BFC6FFE4  0x00000000bfc6ffe4 0x0000000000000004
config_BFC6FFE8  0x00000000bfc6ffe8 0x0000000000000004
config_BFC6FFEC  0x00000000bfc6ffec 0x0000000000000004
config_BFC6FFF0  0x00000000bfc6fff0 0x0000000000000004
config_BFC6FFF4  0x00000000bfc6fff4 0x0000000000000004
config_BFC6FFF8  0x00000000bfc6fff8 0x0000000000000004
config_BFC6FFFC  0x00000000bfc6fffc 0x0000000000000004
boot2lastpage    0x00000000bfc70000 0x0000000000004000
kseg0_data_mem   0x0000000080000000 0x0000000000080000 w !x
sfrs             0x00000000bf800000 0x0000000000100000
configsfrs_BFC0FF40 0x00000000bfc0ff40 0x0000000000000040
configsfrs_BFC0FFC0 0x00000000bfc0ffc0 0x0000000000000040
configsfrs_BFC2FF40 0x00000000bfc2ff40 0x0000000000000040
configsfrs_BFC2FFC0 0x00000000bfc2ffc0 0x0000000000000040
configsfrs_BFC4FF40 0x00000000bfc4ff40 0x0000000000000040
configsfrs_BFC4FFC0 0x00000000bfc4ffc0 0x0000000000000040
configsfrs_BFC54000 0x00000000bfc54000 0x0000000000000020
configsfrs_BFC6FF40 0x00000000bfc6ff40 0x0000000000000040
configsfrs_BFC6FFC0 0x00000000bfc6ffc0 0x0000000000000040
kseg2_ebi_data_mem 0x00000000c0000000 0x0000000004000000
kseg2_sqi_data_mem 0x00000000d0000000 0x0000000004000000
kseg3_ebi_data_mem 0x00000000e0000000 0x0000000004000000
kseg3_sqi_data_mem 0x00000000f0000000 0x0000000004000000
*default*        0x0000000000000000 0xffffffffffffffff

Linker script and memory map

LOAD /opt/microchip/xc32/v4.35/bin/bin/../../lib/gcc/pic32mx/8.3.1/../../../../pic32mx/lib/fpu64/debug-exception-return.o
LOAD build/default/production/_ext/1529399856/osal_freertos.o
LOAD build/default/production/_ext/60165520/plib_clk.o
LOAD build/default/production/_ext/1249264884/plib_coretimer.o
LOAD build/default/production/_ext/1865200349/plib_evic.o
LOAD build/default/production/_ext/1865254177/plib_gpio.o
LOAD build/default/production/_ext/60181895/plib_tmr9.o
LOAD build/default/production/_ext/60181895/plib_tmr8.o
LOAD build/default/production/_ext/1865657120/plib_uart2.o
LOAD build/default/production/_ext/163028504/xc32_monitor.o
LOAD build/default/production/_ext/1832805299/sys_console_uart.o
LOAD build/default/production/_ext/1832805299/sys_console.o
LOAD build/default/production/_ext/944882569/sys_debug.o
LOAD build/default/production/_ext/14461671/sys_dma.o
LOAD build/default/production/_ext/1881668453/sys_int.o
LOAD build/default/production/_ext/101884895/sys_time.o
LOAD build/default/production/_ext/1171490990/freertos_hooks.o
LOAD build/default/production/_ext/1171490990/interrupts.o
LOAD build/default/production/_ext/1171490990/tasks.o
LOAD build/default/production/_ext/1171490990/initialization.o
LOAD build/default/production/_ext/1171490990/interrupts_a.o
LOAD build/default/production/_ext/1171490990/exceptions.o
LOAD build/default/production/_ext/1665200909/heap_1.o
LOAD build/default/production/_ext/951553246/port_asm.o
LOAD build/default/production/_ext/951553246/port.o
LOAD build/default/production/_ext/404212886/croutine.o
LOAD build/default/production/_ext/404212886/queue.o
LOAD build/default/production/_ext/404212886/timers.o
LOAD build/default/production/_ext/404212886/stream_buffer.o
LOAD build/default/production/_ext/404212886/event_groups.o
LOAD build/default/production/_ext/404212886/FreeRTOS_tasks.o
LOAD build/default/production/_ext/404212886/list.o
LOAD build/default/production/_ext/1360937237/app.o
LOAD build/default/production/_ext/1360937237/main.o
LOAD build/default/production/_ext/1954180691/wdrv_winc.o
LOAD build/default/production/_ext/1865161661/plib_dmac.o
LOAD build/default/production/_ext/1954180691/wdrv_winc_nvm.o
LOAD build/default/production/_ext/651226651/event.o
LOAD build/default/production/_ext/1954180691/wdrv_winc_bssctx.o
LOAD build/default/production/_ext/651226651/gatt_client.o
LOAD build/default/production/_ext/298189674/plib_spi1_master.o
LOAD build/default/production/_ext/1954180691/wdrv_winc_powersave.o
LOAD build/default/production/_ext/1954180691/wdrv_winc_systime.o
LOAD build/default/production/_ext/651226651/gattc_task.o
LOAD build/default/production/_ext/1667573777/m2m_hif.o
LOAD build/default/production/_ext/1667573777/m2m_periph.o
LOAD build/default/production/_ext/1068697685/wdrv_winc_eint.o
LOAD build/default/production/_ext/651226651/interface.o
LOAD build/default/production/_ext/651226651/gapc_task.o
LOAD build/default/production/_ext/651226651/error.o
LOAD build/default/production/_ext/1954180691/wdrv_winc_sta.o
LOAD build/default/production/_ext/651226651/wifiprov_task.o
LOAD build/default/production/_ext/1908349716/spi_flash.o
LOAD build/default/production/_ext/2094051164/socket.o
LOAD build/default/production/_ext/1697030576/wdrv_winc_spi.o
LOAD build/default/production/_ext/1667573777/m2m_wifi.o
LOAD build/default/production/_ext/1667573777/nmbus.o
LOAD build/default/production/_ext/1954180691/wdrv_winc_wps.o
LOAD build/default/production/_ext/651226651/gatt_server.o
LOAD build/default/production/_ext/1954180691/wdrv_winc_httpprovctx.o
LOAD build/default/production/_ext/1954180691/wdrv_winc_softap.o
LOAD build/default/production/_ext/1667573777/nmspi.o
LOAD build/default/production/_ext/1954180691/wdrv_winc_ble.o
LOAD build/default/production/_ext/1667573777/nmdrv.o
LOAD build/default/production/_ext/2094051164/inet_addr.o
LOAD build/default/production/_ext/1667573777/m2m_ota.o
LOAD build/default/production/_ext/2018374705/wdrv_winc_osal.o
LOAD build/default/production/_ext/1954180691/wdrv_winc_authctx.o
LOAD build/default/production/_ext/1306418660/platform.o
LOAD build/default/production/_ext/1954180691/wdrv_winc_bssfind.o
LOAD build/default/production/_ext/651226651/gattm_task.o
LOAD build/default/production/_ext/1954180691/wdrv_winc_custie.o
LOAD build/default/production/_ext/1954180691/wdrv_winc_enterprise.o
LOAD build/default/production/_ext/651226651/htpt.o
LOAD build/default/production/_ext/2094051164/inet_ntop.o
LOAD build/default/production/_ext/1636284884/nm_common.o
LOAD build/default/production/_ext/1667573777/m2m_flash.o
LOAD build/default/production/_ext/651226651/gapm_task.o
LOAD build/default/production/_ext/1954180691/wdrv_winc_ssl.o
LOAD build/default/production/_ext/651226651/dbg_task.o
LOAD build/default/production/_ext/2070931557/drv_spi.o
LOAD build/default/production/_ext/1954180691/wdrv_winc_socket.o
LOAD build/default/production/_ext/651226651/gap.o
LOAD build/default/production/_ext/1667573777/m2m_ssl.o
LOAD build/default/production/_ext/1068697685/wdrv_winc_gpio.o
LOAD build/default/production/_ext/651226651/security.o
LOAD build/default/production/_ext/1954180691/wdrv_winc_assoc.o
LOAD build/default/production/_ext/651226651/htpt_task.o
LOAD build/default/production/_ext/1667573777/nmasic.o
LOAD build/default/production/example.o
                0x0000000000000001                __MPLAB_BUILD = 0x1
                0x0000000000000400                PROVIDE (_min_stack_size = 0x400)
START GROUP
LOAD vector_offset_init.o
END GROUP
                0x0000000000000001                PROVIDE (_vector_spacing = 0x1)
                0x000000009d000000                PROVIDE (_ebase_address = 0x9d000000)
                0x00000000bfc00000                _RESET_ADDR = 0xbfc00000
                0x00000000bfc00380                _BEV_EXCPT_ADDR = 0xbfc00380
                0x00000000bfc00480                _DBG_EXCPT_ADDR = 0xbfc00480
                0x000000009d000000                _SIMPLE_TLB_REFILL_EXCPT_ADDR = (_ebase_address + 0x0)
                0x000000009d000100                _CACHE_ERR_EXCPT_ADDR = (_ebase_address + 0x100)
                0x000000009d000180                _GEN_EXCPT_ADDR = (_ebase_address + 0x180)

.config_BFC0FF40
 *(.config_BFC0FF40)

.config_BFC0FF44
 *(.config_BFC0FF44)

.config_BFC0FF48
 *(.config_BFC0FF48)

.config_BFC0FF4C
 *(.config_BFC0FF4C)

.config_BFC0FF50
 *(.config_BFC0FF50)

.config_BFC0FF54
 *(.config_BFC0FF54)

.config_BFC0FF58
 *(.config_BFC0FF58)

.config_BFC0FF5C
 *(.config_BFC0FF5C)

.config_BFC0FF60
 *(.config_BFC0FF60)

.config_BFC0FF64
 *(.config_BFC0FF64)

.config_BFC0FF68
 *(.config_BFC0FF68)

.config_BFC0FF6C
 *(.config_BFC0FF6C)

.config_BFC0FF70
 *(.config_BFC0FF70)

.config_BFC0FF74
 *(.config_BFC0FF74)

.config_BFC0FF78
 *(.config_BFC0FF78)

.config_BFC0FF7C
 *(.config_BFC0FF7C)

.config_BFC0FFC0
                0x00000000bfc0ffc0        0x4
 *(.config_BFC0FFC0)
 .config_BFC0FFC0
                0x00000000bfc0ffc0        0x4 build/default/production/_ext/1171490990/initialization.o
                0x00000000bfc0ffc0                __config_BFC0FFC0

.config_BFC0FFC4
                0x00000000bfc0ffc4        0x4
 *(.config_BFC0FFC4)
 .config_BFC0FFC4
                0x00000000bfc0ffc4        0x4 build/default/production/_ext/1171490990/initialization.o
                0x00000000bfc0ffc4                __config_BFC0FFC4

.config_BFC0FFC8
                0x00000000bfc0ffc8        0x4
 *(.config_BFC0FFC8)
 .config_BFC0FFC8
                0x00000000bfc0ffc8        0x4 build/default/production/_ext/1171490990/initialization.o
                0x00000000bfc0ffc8                __config_BFC0FFC8

.config_BFC0FFCC
                0x00000000bfc0ffcc        0x4
 *(.config_BFC0FFCC)
 .config_BFC0FFCC
                0x00000000bfc0ffcc        0x4 build/default/production/_ext/1171490990/initialization.o
                0x00000000bfc0ffcc                __config_BFC0FFCC

.config_BFC0FFD0
 *(.config_BFC0FFD0)

.config_BFC0FFD4
 *(.config_BFC0FFD4)

.config_BFC0FFD8
 *(.config_BFC0FFD8)

.config_BFC0FFDC
                0x00000000bfc0ffdc        0x4
 *(.config_BFC0FFDC)
 .config_BFC0FFDC
                0x00000000bfc0ffdc        0x4 build/default/production/_ext/1171490990/initialization.o
                0x00000000bfc0ffdc                __config_BFC0FFDC

.config_BFC0FFE0
 *(.config_BFC0FFE0)

.config_BFC0FFE4
 *(.config_BFC0FFE4)

.config_BFC0FFE8
 *(.config_BFC0FFE8)

.config_BFC0FFEC
 *(.config_BFC0FFEC)

.config_BFC0FFF0
                0x00000000bfc0fff0        0x4
 *(.config_BFC0FFF0)
 .config_BFC0FFF0
                0x00000000bfc0fff0        0x4 build/default/production/_ext/1171490990/initialization.o
                0x00000000bfc0fff0                __config_BFC0FFF0

.config_BFC0FFF4
 *(.config_BFC0FFF4)

.config_BFC0FFF8
 *(.config_BFC0FFF8)

.config_BFC0FFFC
 *(.config_BFC0FFFC)

.config_BFC2FF40
 *(.config_BFC2FF40)

.config_BFC2FF44
 *(.config_BFC2FF44)

.config_BFC2FF48
 *(.config_BFC2FF48)

.config_BFC2FF4C
 *(.config_BFC2FF4C)

.config_BFC2FF50
 *(.config_BFC2FF50)

.config_BFC2FF54
 *(.config_BFC2FF54)

.config_BFC2FF58
 *(.config_BFC2FF58)

.config_BFC2FF5C
 *(.config_BFC2FF5C)

.config_BFC2FF60
 *(.config_BFC2FF60)

.config_BFC2FF64
 *(.config_BFC2FF64)

.config_BFC2FF68
 *(.config_BFC2FF68)

.config_BFC2FF6C
 *(.config_BFC2FF6C)

.config_BFC2FF70
 *(.config_BFC2FF70)

.config_BFC2FF74
 *(.config_BFC2FF74)

.config_BFC2FF78
 *(.config_BFC2FF78)

.config_BFC2FF7C
 *(.config_BFC2FF7C)

.config_BFC2FFC0
 *(.config_BFC2FFC0)

.config_BFC2FFC4
 *(.config_BFC2FFC4)

.config_BFC2FFC8
 *(.config_BFC2FFC8)

.config_BFC2FFCC
 *(.config_BFC2FFCC)

.config_BFC2FFD0
 *(.config_BFC2FFD0)

.config_BFC2FFD4
 *(.config_BFC2FFD4)

.config_BFC2FFD8
 *(.config_BFC2FFD8)

.config_BFC2FFDC
 *(.config_BFC2FFDC)

.config_BFC2FFE0
 *(.config_BFC2FFE0)

.config_BFC2FFE4
 *(.config_BFC2FFE4)

.config_BFC2FFE8
 *(.config_BFC2FFE8)

.config_BFC2FFEC
 *(.config_BFC2FFEC)

.config_BFC2FFF0
 *(.config_BFC2FFF0)

.config_BFC2FFF4
 *(.config_BFC2FFF4)

.config_BFC2FFF8
 *(.config_BFC2FFF8)

.config_BFC2FFFC
 *(.config_BFC2FFFC)

.config_BFC4FF40
 *(.config_BFC4FF40)

.config_BFC4FF44
 *(.config_BFC4FF44)

.config_BFC4FF48
 *(.config_BFC4FF48)

.config_BFC4FF4C
 *(.config_BFC4FF4C)

.config_BFC4FF50
 *(.config_BFC4FF50)

.config_BFC4FF54
 *(.config_BFC4FF54)

.config_BFC4FF58
 *(.config_BFC4FF58)

.config_BFC4FF5C
 *(.config_BFC4FF5C)

.config_BFC4FF60
 *(.config_BFC4FF60)

.config_BFC4FF64
 *(.config_BFC4FF64)

.config_BFC4FF68
 *(.config_BFC4FF68)

.config_BFC4FF6C
 *(.config_BFC4FF6C)

.config_BFC4FF70
 *(.config_BFC4FF70)

.config_BFC4FF74
 *(.config_BFC4FF74)

.config_BFC4FF78
 *(.config_BFC4FF78)

.config_BFC4FF7C
 *(.config_BFC4FF7C)

.config_BFC4FFC0
 *(.config_BFC4FFC0)

.config_BFC4FFC4
 *(.config_BFC4FFC4)

.config_BFC4FFC8
 *(.config_BFC4FFC8)

.config_BFC4FFCC
 *(.config_BFC4FFCC)

.config_BFC4FFD0
 *(.config_BFC4FFD0)

.config_BFC4FFD4
 *(.config_BFC4FFD4)

.config_BFC4FFD8
 *(.config_BFC4FFD8)

.config_BFC4FFDC
 *(.config_BFC4FFDC)

.config_BFC4FFE0
 *(.config_BFC4FFE0)

.config_BFC4FFE4
 *(.config_BFC4FFE4)

.config_BFC4FFE8
 *(.config_BFC4FFE8)

.config_BFC4FFEC
 *(.config_BFC4FFEC)

.config_BFC4FFF0
 *(.config_BFC4FFF0)

.config_BFC4FFF4
 *(.config_BFC4FFF4)

.config_BFC4FFF8
 *(.config_BFC4FFF8)

.config_BFC4FFFC
 *(.config_BFC4FFFC)

.config_BFC54000
 *(.config_BFC54000)

.config_BFC54004
 *(.config_BFC54004)

.config_BFC54008
 *(.config_BFC54008)

.config_BFC5400C
 *(.config_BFC5400C)

.config_BFC54010
 *(.config_BFC54010)

.config_BFC5401C
 *(.config_BFC5401C)

.config_BFC54020
 *(.config_BFC54020)

.config_BFC54024
 *(.config_BFC54024)

.config_BFC6FF40
 *(.config_BFC6FF40)

.config_BFC6FF44
 *(.config_BFC6FF44)

.config_BFC6FF48
 *(.config_BFC6FF48)

.config_BFC6FF4C
 *(.config_BFC6FF4C)

.config_BFC6FF50
 *(.config_BFC6FF50)

.config_BFC6FF54
 *(.config_BFC6FF54)

.config_BFC6FF58
 *(.config_BFC6FF58)

.config_BFC6FF5C
 *(.config_BFC6FF5C)

.config_BFC6FF60
 *(.config_BFC6FF60)

.config_BFC6FF64
 *(.config_BFC6FF64)

.config_BFC6FF68
 *(.config_BFC6FF68)

.config_BFC6FF6C
 *(.config_BFC6FF6C)

.config_BFC6FF70
 *(.config_BFC6FF70)

.config_BFC6FF74
 *(.config_BFC6FF74)

.config_BFC6FF78
 *(.config_BFC6FF78)

.config_BFC6FF7C
 *(.config_BFC6FF7C)

.config_BFC6FFC0
 *(.config_BFC6FFC0)

.config_BFC6FFC4
 *(.config_BFC6FFC4)

.config_BFC6FFC8
 *(.config_BFC6FFC8)

.config_BFC6FFCC
 *(.config_BFC6FFCC)

.config_BFC6FFD0
 *(.config_BFC6FFD0)

.config_BFC6FFD4
 *(.config_BFC6FFD4)

.config_BFC6FFD8
 *(.config_BFC6FFD8)

.config_BFC6FFDC
 *(.config_BFC6FFDC)

.config_BFC6FFE0
 *(.config_BFC6FFE0)

.config_BFC6FFE4
 *(.config_BFC6FFE4)

.config_BFC6FFE8
 *(.config_BFC6FFE8)

.config_BFC6FFEC
 *(.config_BFC6FFEC)

.config_BFC6FFF0
 *(.config_BFC6FFF0)

.config_BFC6FFF4
 *(.config_BFC6FFF4)

.config_BFC6FFF8
 *(.config_BFC6FFF8)

.config_BFC6FFFC
 *(.config_BFC6FFFC)

.reset          0x00000000bfc00000      0x1c4
 *(.reset)
 .reset         0x00000000bfc00000       0x18 /tmp/ccyN9zno.o
                0x00000000bfc00000                _reset
 *(.reset.startup)
 .reset.startup
                0x00000000bfc00018      0x1ac /tmp/ccyN9zno.o
                0x00000000bfc00018                _startup

.bev_excpt      0x00000000bfc00380       0x10
 *(.bev_handler)
 .bev_handler   0x00000000bfc00380       0x10 /tmp/ccyN9zno.o

.cache_init     0x00000000bfc004b0      0x218
 *(.cache_init)
 *(.cache_init.*)
 .cache_init.cache
                0x00000000bfc004b0       0xc0 /opt/microchip/xc32/v4.35/bin/bin/../../lib/gcc/pic32mx/8.3.1/../../../../pic32mx/lib/fpu64/libpic32.a(pic32_init_cache.o)
 .cache_init.pic32_size_cache
                0x00000000bfc00570       0x58 /opt/microchip/xc32/v4.35/bin/bin/../../lib/gcc/pic32mx/8.3.1/../../../../pic32mx/lib/fpu64/libpic32.a(pic32_init_cache.o)
                0x00000000bfc00570                __pic32_size_cache
 .cache_init.pic32_init_cache
                0x00000000bfc005c8      0x100 /opt/microchip/xc32/v4.35/bin/bin/../../lib/gcc/pic32mx/8.3.1/../../../../pic32mx/lib/fpu64/libpic32.a(pic32_init_cache.o)
                0x00000000bfc005c8                __pic32_init_cache

.simple_tlb_refill_excpt
                0x000000009d000000       0x10
 *(.simple_tlb_refill_vector)
 .simple_tlb_refill_vector
                0x000000009d000000       0x10 /tmp/ccyN9zno.o

.cache_err_excpt
                0x000000009d000100       0x10
 *(.cache_err_vector)
 .cache_err_vector
                0x000000009d000100       0x10 /tmp/ccyN9zno.o

.app_excpt      0x000000009d000180       0x10
 *(.gen_handler)
 .gen_handler   0x000000009d000180       0x10 /tmp/ccyN9zno.o

.vectors        0x000000009d000200     0x1d08
                0x000000009d000200                . = ALIGN (0x4)
                0x0000000000000200                __vector_offset_0 = DEFINED (__vector_dispatch_0)?(. - _ebase_address):__vector_offset_default
 *(.vector_0)
 .vector_0      0x000000009d000200      0x234 build/default/production/_ext/1171490990/interrupts_a.o
                0x000000009d000200                __vector_dispatch_0
                0x000000009d000434                . = ALIGN (0x4)
                0x0000000000000434                __vector_offset_1 = DEFINED (__vector_dispatch_1)?(. - _ebase_address):__vector_offset_default
 *(.vector_1)
 .vector_1      0x000000009d000434      0x258 build/default/production/_ext/951553246/port_asm.o
                0x000000009d000434                vPortYieldISR
                0x000000009d000434                __vector_dispatch_1
                0x000000009d00068c                . = ALIGN (0x4)
                0x0000000000001ec0                __vector_offset_2 = DEFINED (__vector_dispatch_2)?(. - _ebase_address):__vector_offset_default
 *(.vector_2)
                0x000000009d00068c                . = ALIGN (0x4)
                0x0000000000001ec0                __vector_offset_3 = DEFINED (__vector_dispatch_3)?(. - _ebase_address):__vector_offset_default
 *(.vector_3)
                0x000000009d00068c                . = ALIGN (0x4)
                0x000000000000068c                __vector_offset_4 = DEFINED (__vector_dispatch_4)?(. - _ebase_address):__vector_offset_default
 *(.vector_4)
 .vector_4      0x000000009d00068c      0x22c build/default/production/_ext/951553246/port_asm.o
                0x000000009d00068c                vPortTickInterruptHandler
                0x000000009d00068c                __vector_dispatch_4
                0x000000009d0008b8                . = ALIGN (0x4)
                0x0000000000001ec0                __vector_offset_5 = DEFINED (__vector_dispatch_5)?(. - _ebase_address):__vector_offset_default
 *(.vector_5)
                0x000000009d0008b8                . = ALIGN (0x4)
                0x0000000000001ec0                __vector_offset_6 = DEFINED (__vector_dispatch_6)?(. - _ebase_address):__vector_offset_default
 *(.vector_6)
                0x000000009d0008b8                . = ALIGN (0x4)
                0x0000000000001ec0                __vector_offset_7 = DEFINED (__vector_dispatch_7)?(. - _ebase_address):__vector_offset_default
 *(.vector_7)
                0x000000009d0008b8                . = ALIGN (0x4)
                0x0000000000001ec0                __vector_offset_8 = DEFINED (__vector_dispatch_8)?(. - _ebase_address):__vector_offset_default
 *(.vector_8)
                0x000000009d0008b8                . = ALIGN (0x4)
                0x0000000000001ec0                __vector_offset_9 = DEFINED (__vector_dispatch_9)?(. - _ebase_address):__vector_offset_default
 *(.vector_9)
                0x000000009d0008b8                . = ALIGN (0x4)
                0x0000000000001ec0                __vector_offset_10 = DEFINED (__vector_dispatch_10)?(. - _ebase_address):__vector_offset_default
 *(.vector_10)
                0x000000009d0008b8                . = ALIGN (0x4)
                0x0000000000001ec0                __vector_offset_11 = DEFINED (__vector_dispatch_11)?(. - _ebase_address):__vector_offset_default
 *(.vector_11)
                0x000000009d0008b8                . = ALIGN (0x4)
                0x0000000000001ec0                __vector_offset_12 = DEFINED (__vector_dispatch_12)?(. - _ebase_address):__vector_offset_default
 *(.vector_12)
                0x000000009d0008b8                . = ALIGN (0x4)
                0x0000000000001ec0                __vector_offset_13 = DEFINED (__vector_dispatch_13)?(. - _ebase_address):__vector_offset_default
 *(.vector_13)
                0x000000009d0008b8                . = ALIGN (0x4)
                0x0000000000001ec0                __vector_offset_14 = DEFINED (__vector_dispatch_14)?(. - _ebase_address):__vector_offset_default
 *(.vector_14)
                0x000000009d0008b8                . = ALIGN (0x4)
                0x0000000000001ec0                __vector_offset_15 = DEFINED (__vector_dispatch_15)?(. - _ebase_address):__vector_offset_default
 *(.vector_15)
                0x000000009d0008b8                . = ALIGN (0x4)
                0x0000000000001ec0                __vector_offset_16 = DEFINED (__vector_dispatch_16)?(. - _ebase_address):__vector_offset_default
 *(.vector_16)
                0x000000009d0008b8                . = ALIGN (0x4)
                0x0000000000001ec0                __vector_offset_17 = DEFINED (__vector_dispatch_17)?(. - _ebase_address):__vector_offset_default
 *(.vector_17)
                0x000000009d0008b8                . = ALIGN (0x4)
                0x0000000000001ec0                __vector_offset_18 = DEFINED (__vector_dispatch_18)?(. - _ebase_address):__vector_offset_default
 *(.vector_18)
                0x000000009d0008b8                . = ALIGN (0x4)
                0x0000000000001ec0                __vector_offset_19 = DEFINED (__vector_dispatch_19)?(. - _ebase_address):__vector_offset_default
 *(.vector_19)
                0x000000009d0008b8                . = ALIGN (0x4)
                0x0000000000001ec0                __vector_offset_20 = DEFINED (__vector_dispatch_20)?(. - _ebase_address):__vector_offset_default
 *(.vector_20)
                0x000000009d0008b8                . = ALIGN (0x4)
                0x0000000000001ec0                __vector_offset_21 = DEFINED (__vector_dispatch_21)?(. - _ebase_address):__vector_offset_default
 *(.vector_21)
                0x000000009d0008b8                . = ALIGN (0x4)
                0x0000000000001ec0                __vector_offset_22 = DEFINED (__vector_dispatch_22)?(. - _ebase_address):__vector_offset_default
 *(.vector_22)
                0x000000009d0008b8                . = ALIGN (0x4)
                0x0000000000001ec0                __vector_offset_23 = DEFINED (__vector_dispatch_23)?(. - _ebase_address):__vector_offset_default
 *(.vector_23)
                0x000000009d0008b8                . = ALIGN (0x4)
                0x0000000000001ec0                __vector_offset_24 = DEFINED (__vector_dispatch_24)?(. - _ebase_address):__vector_offset_default
 *(.vector_24)
                0x000000009d0008b8                . = ALIGN (0x4)
                0x0000000000001ec0                __vector_offset_25 = DEFINED (__vector_dispatch_25)?(. - _ebase_address):__vector_offset_default
 *(.vector_25)
                0x000000009d0008b8                . = ALIGN (0x4)
                0x0000000000001ec0                __vector_offset_26 = DEFINED (__vector_dispatch_26)?(. - _ebase_address):__vector_offset_default
 *(.vector_26)
                0x000000009d0008b8                . = ALIGN (0x4)
                0x0000000000001ec0                __vector_offset_27 = DEFINED (__vector_dispatch_27)?(. - _ebase_address):__vector_offset_default
 *(.vector_27)
                0x000000009d0008b8                . = ALIGN (0x4)
                0x0000000000001ec0                __vector_offset_28 = DEFINED (__vector_dispatch_28)?(. - _ebase_address):__vector_offset_default
 *(.vector_28)
                0x000000009d0008b8                . = ALIGN (0x4)
                0x0000000000001ec0                __vector_offset_29 = DEFINED (__vector_dispatch_29)?(. - _ebase_address):__vector_offset_default
 *(.vector_29)
                0x000000009d0008b8                . = ALIGN (0x4)
                0x0000000000001ec0                __vector_offset_30 = DEFINED (__vector_dispatch_30)?(. - _ebase_address):__vector_offset_default
 *(.vector_30)
                0x000000009d0008b8                . = ALIGN (0x4)
                0x0000000000001ec0                __vector_offset_31 = DEFINED (__vector_dispatch_31)?(. - _ebase_address):__vector_offset_default
 *(.vector_31)
                0x000000009d0008b8                . = ALIGN (0x4)
                0x0000000000001ec0                __vector_offset_32 = DEFINED (__vector_dispatch_32)?(. - _ebase_address):__vector_offset_default
 *(.vector_32)
                0x000000009d0008b8                . = ALIGN (0x4)
                0x0000000000001ec0                __vector_offset_33 = DEFINED (__vector_dispatch_33)?(. - _ebase_address):__vector_offset_default
 *(.vector_33)
                0x000000009d0008b8                . = ALIGN (0x4)
                0x0000000000001ec0                __vector_offset_34 = DEFINED (__vector_dispatch_34)?(. - _ebase_address):__vector_offset_default
 *(.vector_34)
                0x000000009d0008b8                . = ALIGN (0x4)
                0x0000000000001ec0                __vector_offset_35 = DEFINED (__vector_dispatch_35)?(. - _ebase_address):__vector_offset_default
 *(.vector_35)
                0x000000009d0008b8                . = ALIGN (0x4)
                0x00000000000008b8                __vector_offset_36 = DEFINED (__vector_dispatch_36)?(. - _ebase_address):__vector_offset_default
 *(.vector_36)
 .vector_36     0x000000009d0008b8      0x234 build/default/production/_ext/1171490990/interrupts_a.o
                0x000000009d0008b8                __vector_dispatch_36
                0x000000009d000aec                . = ALIGN (0x4)
                0x0000000000001ec0                __vector_offset_37 = DEFINED (__vector_dispatch_37)?(. - _ebase_address):__vector_offset_default
 *(.vector_37)
                0x000000009d000aec                . = ALIGN (0x4)
                0x0000000000001ec0                __vector_offset_38 = DEFINED (__vector_dispatch_38)?(. - _ebase_address):__vector_offset_default
 *(.vector_38)
                0x000000009d000aec                . = ALIGN (0x4)
                0x0000000000001ec0                __vector_offset_39 = DEFINED (__vector_dispatch_39)?(. - _ebase_address):__vector_offset_default
 *(.vector_39)
                0x000000009d000aec                . = ALIGN (0x4)
                0x0000000000000aec                __vector_offset_40 = DEFINED (__vector_dispatch_40)?(. - _ebase_address):__vector_offset_default
 *(.vector_40)
 .vector_40     0x000000009d000aec      0x234 build/default/production/_ext/1171490990/interrupts_a.o
                0x000000009d000aec                __vector_dispatch_40
                0x000000009d000d20                . = ALIGN (0x4)
                0x0000000000001ec0                __vector_offset_41 = DEFINED (__vector_dispatch_41)?(. - _ebase_address):__vector_offset_default
 *(.vector_41)
                0x000000009d000d20                . = ALIGN (0x4)
                0x0000000000001ec0                __vector_offset_42 = DEFINED (__vector_dispatch_42)?(. - _ebase_address):__vector_offset_default
 *(.vector_42)
                0x000000009d000d20                . = ALIGN (0x4)
                0x0000000000001ec0                __vector_offset_43 = DEFINED (__vector_dispatch_43)?(. - _ebase_address):__vector_offset_default
 *(.vector_43)
                0x000000009d000d20                . = ALIGN (0x4)
                0x0000000000001ec0                __vector_offset_44 = DEFINED (__vector_dispatch_44)?(. - _ebase_address):__vector_offset_default
 *(.vector_44)
                0x000000009d000d20                . = ALIGN (0x4)
                0x0000000000001ec0                __vector_offset_45 = DEFINED (__vector_dispatch_45)?(. - _ebase_address):__vector_offset_default
 *(.vector_45)
                0x000000009d000d20                . = ALIGN (0x4)
                0x0000000000001ec0                __vector_offset_46 = DEFINED (__vector_dispatch_46)?(. - _ebase_address):__vector_offset_default
 *(.vector_46)
                0x000000009d000d20                . = ALIGN (0x4)
                0x0000000000001ec0                __vector_offset_47 = DEFINED (__vector_dispatch_47)?(. - _ebase_address):__vector_offset_default
 *(.vector_47)
                0x000000009d000d20                . = ALIGN (0x4)
                0x0000000000001ec0                __vector_offset_48 = DEFINED (__vector_dispatch_48)?(. - _ebase_address):__vector_offset_default
 *(.vector_48)
                0x000000009d000d20                . = ALIGN (0x4)
                0x0000000000001ec0                __vector_offset_49 = DEFINED (__vector_dispatch_49)?(. - _ebase_address):__vector_offset_default
 *(.vector_49)
                0x000000009d000d20                . = ALIGN (0x4)
                0x0000000000001ec0                __vector_offset_50 = DEFINED (__vector_dispatch_50)?(. - _ebase_address):__vector_offset_default
 *(.vector_50)
                0x000000009d000d20                . = ALIGN (0x4)
                0x0000000000001ec0                __vector_offset_51 = DEFINED (__vector_dispatch_51)?(. - _ebase_address):__vector_offset_default
 *(.vector_51)
                0x000000009d000d20                . = ALIGN (0x4)
                0x0000000000001ec0                __vector_offset_52 = DEFINED (__vector_dispatch_52)?(. - _ebase_address):__vector_offset_default
 *(.vector_52)
                0x000000009d000d20                . = ALIGN (0x4)
                0x0000000000001ec0                __vector_offset_53 = DEFINED (__vector_dispatch_53)?(. - _ebase_address):__vector_offset_default
 *(.vector_53)
                0x000000009d000d20                . = ALIGN (0x4)
                0x0000000000001ec0                __vector_offset_54 = DEFINED (__vector_dispatch_54)?(. - _ebase_address):__vector_offset_default
 *(.vector_54)
                0x000000009d000d20                . = ALIGN (0x4)
                0x0000000000001ec0                __vector_offset_55 = DEFINED (__vector_dispatch_55)?(. - _ebase_address):__vector_offset_default
 *(.vector_55)
                0x000000009d000d20                . = ALIGN (0x4)
                0x0000000000001ec0                __vector_offset_56 = DEFINED (__vector_dispatch_56)?(. - _ebase_address):__vector_offset_default
 *(.vector_56)
                0x000000009d000d20                . = ALIGN (0x4)
                0x0000000000001ec0                __vector_offset_57 = DEFINED (__vector_dispatch_57)?(. - _ebase_address):__vector_offset_default
 *(.vector_57)
                0x000000009d000d20                . = ALIGN (0x4)
                0x0000000000001ec0                __vector_offset_58 = DEFINED (__vector_dispatch_58)?(. - _ebase_address):__vector_offset_default
 *(.vector_58)
                0x000000009d000d20                . = ALIGN (0x4)
                0x0000000000001ec0                __vector_offset_59 = DEFINED (__vector_dispatch_59)?(. - _ebase_address):__vector_offset_default
 *(.vector_59)
                0x000000009d000d20                . = ALIGN (0x4)
                0x0000000000001ec0                __vector_offset_60 = DEFINED (__vector_dispatch_60)?(. - _ebase_address):__vector_offset_default
 *(.vector_60)
                0x000000009d000d20                . = ALIGN (0x4)
                0x0000000000001ec0                __vector_offset_61 = DEFINED (__vector_dispatch_61)?(. - _ebase_address):__vector_offset_default
 *(.vector_61)
                0x000000009d000d20                . = ALIGN (0x4)
                0x0000000000001ec0                __vector_offset_62 = DEFINED (__vector_dispatch_62)?(. - _ebase_address):__vector_offset_default
 *(.vector_62)
                0x000000009d000d20                . = ALIGN (0x4)
                0x0000000000001ec0                __vector_offset_63 = DEFINED (__vector_dispatch_63)?(. - _ebase_address):__vector_offset_default
 *(.vector_63)
                0x000000009d000d20                . = ALIGN (0x4)
                0x0000000000001ec0                __vector_offset_64 = DEFINED (__vector_dispatch_64)?(. - _ebase_address):__vector_offset_default
 *(.vector_64)
                0x000000009d000d20                . = ALIGN (0x4)
                0x0000000000001ec0                __vector_offset_65 = DEFINED (__vector_dispatch_65)?(. - _ebase_address):__vector_offset_default
 *(.vector_65)
                0x000000009d000d20                . = ALIGN (0x4)
                0x0000000000001ec0                __vector_offset_66 = DEFINED (__vector_dispatch_66)?(. - _ebase_address):__vector_offset_default
 *(.vector_66)
                0x000000009d000d20                . = ALIGN (0x4)
                0x0000000000001ec0                __vector_offset_67 = DEFINED (__vector_dispatch_67)?(. - _ebase_address):__vector_offset_default
 *(.vector_67)
                0x000000009d000d20                . = ALIGN (0x4)
                0x0000000000001ec0                __vector_offset_68 = DEFINED (__vector_dispatch_68)?(. - _ebase_address):__vector_offset_default
 *(.vector_68)
                0x000000009d000d20                . = ALIGN (0x4)
                0x0000000000001ec0                __vector_offset_69 = DEFINED (__vector_dispatch_69)?(. - _ebase_address):__vector_offset_default
 *(.vector_69)
                0x000000009d000d20                . = ALIGN (0x4)
                0x0000000000001ec0                __vector_offset_70 = DEFINED (__vector_dispatch_70)?(. - _ebase_address):__vector_offset_default
 *(.vector_70)
                0x000000009d000d20                . = ALIGN (0x4)
                0x0000000000001ec0                __vector_offset_71 = DEFINED (__vector_dispatch_71)?(. - _ebase_address):__vector_offset_default
 *(.vector_71)
                0x000000009d000d20                . = ALIGN (0x4)
                0x0000000000001ec0                __vector_offset_72 = DEFINED (__vector_dispatch_72)?(. - _ebase_address):__vector_offset_default
 *(.vector_72)
                0x000000009d000d20                . = ALIGN (0x4)
                0x0000000000001ec0                __vector_offset_73 = DEFINED (__vector_dispatch_73)?(. - _ebase_address):__vector_offset_default
 *(.vector_73)
                0x000000009d000d20                . = ALIGN (0x4)
                0x0000000000001ec0                __vector_offset_74 = DEFINED (__vector_dispatch_74)?(. - _ebase_address):__vector_offset_default
 *(.vector_74)
                0x000000009d000d20                . = ALIGN (0x4)
                0x0000000000001ec0                __vector_offset_75 = DEFINED (__vector_dispatch_75)?(. - _ebase_address):__vector_offset_default
 *(.vector_75)
                0x000000009d000d20                . = ALIGN (0x4)
                0x0000000000001ec0                __vector_offset_76 = DEFINED (__vector_dispatch_76)?(. - _ebase_address):__vector_offset_default
 *(.vector_76)
                0x000000009d000d20                . = ALIGN (0x4)
                0x0000000000001ec0                __vector_offset_77 = DEFINED (__vector_dispatch_77)?(. - _ebase_address):__vector_offset_default
 *(.vector_77)
                0x000000009d000d20                . = ALIGN (0x4)
                0x0000000000001ec0                __vector_offset_78 = DEFINED (__vector_dispatch_78)?(. - _ebase_address):__vector_offset_default
 *(.vector_78)
                0x000000009d000d20                . = ALIGN (0x4)
                0x0000000000001ec0                __vector_offset_79 = DEFINED (__vector_dispatch_79)?(. - _ebase_address):__vector_offset_default
 *(.vector_79)
                0x000000009d000d20                . = ALIGN (0x4)
                0x0000000000001ec0                __vector_offset_80 = DEFINED (__vector_dispatch_80)?(. - _ebase_address):__vector_offset_default
 *(.vector_80)
                0x000000009d000d20                . = ALIGN (0x4)
                0x0000000000001ec0                __vector_offset_81 = DEFINED (__vector_dispatch_81)?(. - _ebase_address):__vector_offset_default
 *(.vector_81)
                0x000000009d000d20                . = ALIGN (0x4)
                0x0000000000001ec0                __vector_offset_82 = DEFINED (__vector_dispatch_82)?(. - _ebase_address):__vector_offset_default
 *(.vector_82)
                0x000000009d000d20                . = ALIGN (0x4)
                0x0000000000001ec0                __vector_offset_83 = DEFINED (__vector_dispatch_83)?(. - _ebase_address):__vector_offset_default
 *(.vector_83)
                0x000000009d000d20                . = ALIGN (0x4)
                0x0000000000001ec0                __vector_offset_84 = DEFINED (__vector_dispatch_84)?(. - _ebase_address):__vector_offset_default
 *(.vector_84)
                0x000000009d000d20                . = ALIGN (0x4)
                0x0000000000001ec0                __vector_offset_85 = DEFINED (__vector_dispatch_85)?(. - _ebase_address):__vector_offset_default
 *(.vector_85)
                0x000000009d000d20                . = ALIGN (0x4)
                0x0000000000001ec0                __vector_offset_86 = DEFINED (__vector_dispatch_86)?(. - _ebase_address):__vector_offset_default
 *(.vector_86)
                0x000000009d000d20                . = ALIGN (0x4)
                0x0000000000001ec0                __vector_offset_87 = DEFINED (__vector_dispatch_87)?(. - _ebase_address):__vector_offset_default
 *(.vector_87)
                0x000000009d000d20                . = ALIGN (0x4)
                0x0000000000001ec0                __vector_offset_88 = DEFINED (__vector_dispatch_88)?(. - _ebase_address):__vector_offset_default
 *(.vector_88)
                0x000000009d000d20                . = ALIGN (0x4)
                0x0000000000001ec0                __vector_offset_89 = DEFINED (__vector_dispatch_89)?(. - _ebase_address):__vector_offset_default
 *(.vector_89)
                0x000000009d000d20                . = ALIGN (0x4)
                0x0000000000001ec0                __vector_offset_90 = DEFINED (__vector_dispatch_90)?(. - _ebase_address):__vector_offset_default
 *(.vector_90)
                0x000000009d000d20                . = ALIGN (0x4)
                0x0000000000001ec0                __vector_offset_91 = DEFINED (__vector_dispatch_91)?(. - _ebase_address):__vector_offset_default
 *(.vector_91)
                0x000000009d000d20                . = ALIGN (0x4)
                0x0000000000001ec0                __vector_offset_92 = DEFINED (__vector_dispatch_92)?(. - _ebase_address):__vector_offset_default
 *(.vector_92)
                0x000000009d000d20                . = ALIGN (0x4)
                0x0000000000001ec0                __vector_offset_93 = DEFINED (__vector_dispatch_93)?(. - _ebase_address):__vector_offset_default
 *(.vector_93)
                0x000000009d000d20                . = ALIGN (0x4)
                0x0000000000001ec0                __vector_offset_94 = DEFINED (__vector_dispatch_94)?(. - _ebase_address):__vector_offset_default
 *(.vector_94)
                0x000000009d000d20                . = ALIGN (0x4)
                0x0000000000001ec0                __vector_offset_95 = DEFINED (__vector_dispatch_95)?(. - _ebase_address):__vector_offset_default
 *(.vector_95)
                0x000000009d000d20                . = ALIGN (0x4)
                0x0000000000001ec0                __vector_offset_96 = DEFINED (__vector_dispatch_96)?(. - _ebase_address):__vector_offset_default
 *(.vector_96)
                0x000000009d000d20                . = ALIGN (0x4)
                0x0000000000001ec0                __vector_offset_97 = DEFINED (__vector_dispatch_97)?(. - _ebase_address):__vector_offset_default
 *(.vector_97)
                0x000000009d000d20                . = ALIGN (0x4)
                0x0000000000001ec0                __vector_offset_98 = DEFINED (__vector_dispatch_98)?(. - _ebase_address):__vector_offset_default
 *(.vector_98)
                0x000000009d000d20                . = ALIGN (0x4)
                0x0000000000001ec0                __vector_offset_99 = DEFINED (__vector_dispatch_99)?(. - _ebase_address):__vector_offset_default
 *(.vector_99)
                0x000000009d000d20                . = ALIGN (0x4)
                0x0000000000001ec0                __vector_offset_100 = DEFINED (__vector_dispatch_100)?(. - _ebase_address):__vector_offset_default
 *(.vector_100)
                0x000000009d000d20                . = ALIGN (0x4)
                0x0000000000001ec0                __vector_offset_101 = DEFINED (__vector_dispatch_101)?(. - _ebase_address):__vector_offset_default
 *(.vector_101)
                0x000000009d000d20                . = ALIGN (0x4)
                0x0000000000001ec0                __vector_offset_102 = DEFINED (__vector_dispatch_102)?(. - _ebase_address):__vector_offset_default
 *(.vector_102)
                0x000000009d000d20                . = ALIGN (0x4)
                0x0000000000001ec0                __vector_offset_103 = DEFINED (__vector_dispatch_103)?(. - _ebase_address):__vector_offset_default
 *(.vector_103)
                0x000000009d000d20                . = ALIGN (0x4)
                0x0000000000001ec0                __vector_offset_104 = DEFINED (__vector_dispatch_104)?(. - _ebase_address):__vector_offset_default
 *(.vector_104)
                0x000000009d000d20                . = ALIGN (0x4)
                0x0000000000001ec0                __vector_offset_105 = DEFINED (__vector_dispatch_105)?(. - _ebase_address):__vector_offset_default
 *(.vector_105)
                0x000000009d000d20                . = ALIGN (0x4)
                0x0000000000001ec0                __vector_offset_106 = DEFINED (__vector_dispatch_106)?(. - _ebase_address):__vector_offset_default
 *(.vector_106)
                0x000000009d000d20                . = ALIGN (0x4)
                0x0000000000001ec0                __vector_offset_107 = DEFINED (__vector_dispatch_107)?(. - _ebase_address):__vector_offset_default
 *(.vector_107)
                0x000000009d000d20                . = ALIGN (0x4)
                0x0000000000001ec0                __vector_offset_108 = DEFINED (__vector_dispatch_108)?(. - _ebase_address):__vector_offset_default
 *(.vector_108)
                0x000000009d000d20                . = ALIGN (0x4)
                0x0000000000001ec0                __vector_offset_109 = DEFINED (__vector_dispatch_109)?(. - _ebase_address):__vector_offset_default
 *(.vector_109)
                0x000000009d000d20                . = ALIGN (0x4)
                0x0000000000000d20                __vector_offset_110 = DEFINED (__vector_dispatch_110)?(. - _ebase_address):__vector_offset_default
 *(.vector_110)
 .vector_110    0x000000009d000d20      0x234 build/default/production/_ext/1171490990/interrupts_a.o
                0x000000009d000d20                __vector_dispatch_110
                0x000000009d000f54                . = ALIGN (0x4)
                0x0000000000000f54                __vector_offset_111 = DEFINED (__vector_dispatch_111)?(. - _ebase_address):__vector_offset_default
 *(.vector_111)
 .vector_111    0x000000009d000f54      0x234 build/default/production/_ext/1171490990/interrupts_a.o
                0x000000009d000f54                __vector_dispatch_111
                0x000000009d001188                . = ALIGN (0x4)
                0x0000000000001ec0                __vector_offset_112 = DEFINED (__vector_dispatch_112)?(. - _ebase_address):__vector_offset_default
 *(.vector_112)
                0x000000009d001188                . = ALIGN (0x4)
                0x0000000000001ec0                __vector_offset_113 = DEFINED (__vector_dispatch_113)?(. - _ebase_address):__vector_offset_default
 *(.vector_113)
                0x000000009d001188                . = ALIGN (0x4)
                0x0000000000001ec0                __vector_offset_114 = DEFINED (__vector_dispatch_114)?(. - _ebase_address):__vector_offset_default
 *(.vector_114)
                0x000000009d001188                . = ALIGN (0x4)
                0x0000000000001ec0                __vector_offset_115 = DEFINED (__vector_dispatch_115)?(. - _ebase_address):__vector_offset_default
 *(.vector_115)
                0x000000009d001188                . = ALIGN (0x4)
                0x0000000000001ec0                __vector_offset_116 = DEFINED (__vector_dispatch_116)?(. - _ebase_address):__vector_offset_default
 *(.vector_116)
                0x000000009d001188                . = ALIGN (0x4)
                0x0000000000001ec0                __vector_offset_117 = DEFINED (__vector_dispatch_117)?(. - _ebase_address):__vector_offset_default
 *(.vector_117)
                0x000000009d001188                . = ALIGN (0x4)
                0x0000000000001ec0                __vector_offset_118 = DEFINED (__vector_dispatch_118)?(. - _ebase_address):__vector_offset_default
 *(.vector_118)
                0x000000009d001188                . = ALIGN (0x4)
                0x0000000000001ec0                __vector_offset_119 = DEFINED (__vector_dispatch_119)?(. - _ebase_address):__vector_offset_default
 *(.vector_119)
                0x000000009d001188                . = ALIGN (0x4)
                0x0000000000001ec0                __vector_offset_120 = DEFINED (__vector_dispatch_120)?(. - _ebase_address):__vector_offset_default
 *(.vector_120)
                0x000000009d001188                . = ALIGN (0x4)
                0x0000000000001ec0                __vector_offset_121 = DEFINED (__vector_dispatch_121)?(. - _ebase_address):__vector_offset_default
 *(.vector_121)
                0x000000009d001188                . = ALIGN (0x4)
                0x0000000000001ec0                __vector_offset_122 = DEFINED (__vector_dispatch_122)?(. - _ebase_address):__vector_offset_default
 *(.vector_122)
                0x000000009d001188                . = ALIGN (0x4)
                0x0000000000001ec0                __vector_offset_123 = DEFINED (__vector_dispatch_123)?(. - _ebase_address):__vector_offset_default
 *(.vector_123)
                0x000000009d001188                . = ALIGN (0x4)
                0x0000000000001188                __vector_offset_124 = DEFINED (__vector_dispatch_124)?(. - _ebase_address):__vector_offset_default
 *(.vector_124)
 .vector_124    0x000000009d001188      0x234 build/default/production/_ext/1171490990/interrupts_a.o
                0x000000009d001188                __vector_dispatch_124
                0x000000009d0013bc                . = ALIGN (0x4)
                0x0000000000001ec0                __vector_offset_125 = DEFINED (__vector_dispatch_125)?(. - _ebase_address):__vector_offset_default
 *(.vector_125)
                0x000000009d0013bc                . = ALIGN (0x4)
                0x0000000000001ec0                __vector_offset_126 = DEFINED (__vector_dispatch_126)?(. - _ebase_address):__vector_offset_default
 *(.vector_126)
                0x000000009d0013bc                . = ALIGN (0x4)
                0x0000000000001ec0                __vector_offset_127 = DEFINED (__vector_dispatch_127)?(. - _ebase_address):__vector_offset_default
 *(.vector_127)
                0x000000009d0013bc                . = ALIGN (0x4)
                0x0000000000001ec0                __vector_offset_128 = DEFINED (__vector_dispatch_128)?(. - _ebase_address):__vector_offset_default
 *(.vector_128)
                0x000000009d0013bc                . = ALIGN (0x4)
                0x0000000000001ec0                __vector_offset_129 = DEFINED (__vector_dispatch_129)?(. - _ebase_address):__vector_offset_default
 *(.vector_129)
                0x000000009d0013bc                . = ALIGN (0x4)
                0x0000000000001ec0                __vector_offset_130 = DEFINED (__vector_dispatch_130)?(. - _ebase_address):__vector_offset_default
 *(.vector_130)
                0x000000009d0013bc                . = ALIGN (0x4)
                0x0000000000001ec0                __vector_offset_131 = DEFINED (__vector_dispatch_131)?(. - _ebase_address):__vector_offset_default
 *(.vector_131)
                0x000000009d0013bc                . = ALIGN (0x4)
                0x0000000000001ec0                __vector_offset_132 = DEFINED (__vector_dispatch_132)?(. - _ebase_address):__vector_offset_default
 *(.vector_132)
                0x000000009d0013bc                . = ALIGN (0x4)
                0x0000000000001ec0                __vector_offset_133 = DEFINED (__vector_dispatch_133)?(. - _ebase_address):__vector_offset_default
 *(.vector_133)
                0x000000009d0013bc                . = ALIGN (0x4)
                0x00000000000013bc                __vector_offset_134 = DEFINED (__vector_dispatch_134)?(. - _ebase_address):__vector_offset_default
 *(.vector_134)
 .vector_134    0x000000009d0013bc      0x234 build/default/production/_ext/1171490990/interrupts_a.o
                0x000000009d0013bc                __vector_dispatch_134
                0x000000009d0015f0                . = ALIGN (0x4)
                0x00000000000015f0                __vector_offset_135 = DEFINED (__vector_dispatch_135)?(. - _ebase_address):__vector_offset_default
 *(.vector_135)
 .vector_135    0x000000009d0015f0      0x234 build/default/production/_ext/1171490990/interrupts_a.o
                0x000000009d0015f0                __vector_dispatch_135
                0x000000009d001824                . = ALIGN (0x4)
                0x0000000000001ec0                __vector_offset_136 = DEFINED (__vector_dispatch_136)?(. - _ebase_address):__vector_offset_default
 *(.vector_136)
                0x000000009d001824                . = ALIGN (0x4)
                0x0000000000001ec0                __vector_offset_137 = DEFINED (__vector_dispatch_137)?(. - _ebase_address):__vector_offset_default
 *(.vector_137)
                0x000000009d001824                . = ALIGN (0x4)
                0x0000000000001ec0                __vector_offset_138 = DEFINED (__vector_dispatch_138)?(. - _ebase_address):__vector_offset_default
 *(.vector_138)
                0x000000009d001824                . = ALIGN (0x4)
                0x0000000000001ec0                __vector_offset_139 = DEFINED (__vector_dispatch_139)?(. - _ebase_address):__vector_offset_default
 *(.vector_139)
                0x000000009d001824                . = ALIGN (0x4)
                0x0000000000001ec0                __vector_offset_140 = DEFINED (__vector_dispatch_140)?(. - _ebase_address):__vector_offset_default
 *(.vector_140)
                0x000000009d001824                . = ALIGN (0x4)
                0x0000000000001ec0                __vector_offset_141 = DEFINED (__vector_dispatch_141)?(. - _ebase_address):__vector_offset_default
 *(.vector_141)
                0x000000009d001824                . = ALIGN (0x4)
                0x0000000000001ec0                __vector_offset_142 = DEFINED (__vector_dispatch_142)?(. - _ebase_address):__vector_offset_default
 *(.vector_142)
                0x000000009d001824                . = ALIGN (0x4)
                0x0000000000001ec0                __vector_offset_143 = DEFINED (__vector_dispatch_143)?(. - _ebase_address):__vector_offset_default
 *(.vector_143)
                0x000000009d001824                . = ALIGN (0x4)
                0x0000000000001ec0                __vector_offset_144 = DEFINED (__vector_dispatch_144)?(. - _ebase_address):__vector_offset_default
 *(.vector_144)
                0x000000009d001824                . = ALIGN (0x4)
                0x0000000000001824                __vector_offset_145 = DEFINED (__vector_dispatch_145)?(. - _ebase_address):__vector_offset_default
 *(.vector_145)
 .vector_145    0x000000009d001824      0x234 build/default/production/_ext/1171490990/interrupts_a.o
                0x000000009d001824                __vector_dispatch_145
                0x000000009d001a58                . = ALIGN (0x4)
                0x0000000000001a58                __vector_offset_146 = DEFINED (__vector_dispatch_146)?(. - _ebase_address):__vector_offset_default
 *(.vector_146)
 .vector_146    0x000000009d001a58      0x234 build/default/production/_ext/1171490990/interrupts_a.o
                0x000000009d001a58                __vector_dispatch_146
                0x000000009d001c8c                . = ALIGN (0x4)
                0x0000000000001c8c                __vector_offset_147 = DEFINED (__vector_dispatch_147)?(. - _ebase_address):__vector_offset_default
 *(.vector_147)
 .vector_147    0x000000009d001c8c      0x234 build/default/production/_ext/1171490990/interrupts_a.o
                0x000000009d001c8c                __vector_dispatch_147
                0x000000009d001ec0                . = ALIGN (0x4)
                0x0000000000001ec0                __vector_offset_148 = DEFINED (__vector_dispatch_148)?(. - _ebase_address):__vector_offset_default
 *(.vector_148)
                0x000000009d001ec0                . = ALIGN (0x4)
                0x0000000000001ec0                __vector_offset_149 = DEFINED (__vector_dispatch_149)?(. - _ebase_address):__vector_offset_default
 *(.vector_149)
                0x000000009d001ec0                . = ALIGN (0x4)
                0x0000000000001ec0                __vector_offset_150 = DEFINED (__vector_dispatch_150)?(. - _ebase_address):__vector_offset_default
 *(.vector_150)
                0x000000009d001ec0                . = ALIGN (0x4)
                0x0000000000001ec0                __vector_offset_151 = DEFINED (__vector_dispatch_151)?(. - _ebase_address):__vector_offset_default
 *(.vector_151)
                0x000000009d001ec0                . = ALIGN (0x4)
                0x0000000000001ec0                __vector_offset_152 = DEFINED (__vector_dispatch_152)?(. - _ebase_address):__vector_offset_default
 *(.vector_152)
                0x000000009d001ec0                . = ALIGN (0x4)
                0x0000000000001ec0                __vector_offset_153 = DEFINED (__vector_dispatch_153)?(. - _ebase_address):__vector_offset_default
 *(.vector_153)
                0x000000009d001ec0                . = ALIGN (0x4)
                0x0000000000001ec0                __vector_offset_154 = DEFINED (__vector_dispatch_154)?(. - _ebase_address):__vector_offset_default
 *(.vector_154)
                0x000000009d001ec0                . = ALIGN (0x4)
                0x0000000000001ec0                __vector_offset_155 = DEFINED (__vector_dispatch_155)?(. - _ebase_address):__vector_offset_default
 *(.vector_155)
                0x000000009d001ec0                . = ALIGN (0x4)
                0x0000000000001ec0                __vector_offset_156 = DEFINED (__vector_dispatch_156)?(. - _ebase_address):__vector_offset_default
 *(.vector_156)
                0x000000009d001ec0                . = ALIGN (0x4)
                0x0000000000001ec0                __vector_offset_157 = DEFINED (__vector_dispatch_157)?(. - _ebase_address):__vector_offset_default
 *(.vector_157)
                0x000000009d001ec0                . = ALIGN (0x4)
                0x0000000000001ec0                __vector_offset_158 = DEFINED (__vector_dispatch_158)?(. - _ebase_address):__vector_offset_default
 *(.vector_158)
                0x000000009d001ec0                . = ALIGN (0x4)
                0x0000000000001ec0                __vector_offset_159 = DEFINED (__vector_dispatch_159)?(. - _ebase_address):__vector_offset_default
 *(.vector_159)
                0x000000009d001ec0                . = ALIGN (0x4)
                0x0000000000001ec0                __vector_offset_160 = DEFINED (__vector_dispatch_160)?(. - _ebase_address):__vector_offset_default
 *(.vector_160)
                0x000000009d001ec0                . = ALIGN (0x4)
                0x0000000000001ec0                __vector_offset_161 = DEFINED (__vector_dispatch_161)?(. - _ebase_address):__vector_offset_default
 *(.vector_161)
                0x000000009d001ec0                . = ALIGN (0x4)
                0x0000000000001ec0                __vector_offset_162 = DEFINED (__vector_dispatch_162)?(. - _ebase_address):__vector_offset_default
 *(.vector_162)
                0x000000009d001ec0                . = ALIGN (0x4)
                0x0000000000001ec0                __vector_offset_163 = DEFINED (__vector_dispatch_163)?(. - _ebase_address):__vector_offset_default
 *(.vector_163)
                0x000000009d001ec0                . = ALIGN (0x4)
                0x0000000000001ec0                __vector_offset_164 = DEFINED (__vector_dispatch_164)?(. - _ebase_address):__vector_offset_default
 *(.vector_164)
                0x000000009d001ec0                . = ALIGN (0x4)
                0x0000000000001ec0                __vector_offset_165 = DEFINED (__vector_dispatch_165)?(. - _ebase_address):__vector_offset_default
 *(.vector_165)
                0x000000009d001ec0                . = ALIGN (0x4)
                0x0000000000001ec0                __vector_offset_166 = DEFINED (__vector_dispatch_166)?(. - _ebase_address):__vector_offset_default
 *(.vector_166)
                0x000000009d001ec0                . = ALIGN (0x4)
                0x0000000000001ec0                __vector_offset_167 = DEFINED (__vector_dispatch_167)?(. - _ebase_address):__vector_offset_default
 *(.vector_167)
                0x000000009d001ec0                . = ALIGN (0x4)
                0x0000000000001ec0                __vector_offset_168 = DEFINED (__vector_dispatch_168)?(. - _ebase_address):__vector_offset_default
 *(.vector_168)
                0x000000009d001ec0                . = ALIGN (0x4)
                0x0000000000001ec0                __vector_offset_169 = DEFINED (__vector_dispatch_169)?(. - _ebase_address):__vector_offset_default
 *(.vector_169)
                0x000000009d001ec0                . = ALIGN (0x4)
                0x0000000000001ec0                __vector_offset_170 = DEFINED (__vector_dispatch_170)?(. - _ebase_address):__vector_offset_default
 *(.vector_170)
                0x000000009d001ec0                . = ALIGN (0x4)
                0x0000000000001ec0                __vector_offset_171 = DEFINED (__vector_dispatch_171)?(. - _ebase_address):__vector_offset_default
 *(.vector_171)
                0x000000009d001ec0                . = ALIGN (0x4)
                0x0000000000001ec0                __vector_offset_172 = DEFINED (__vector_dispatch_172)?(. - _ebase_address):__vector_offset_default
 *(.vector_172)
                0x000000009d001ec0                . = ALIGN (0x4)
                0x0000000000001ec0                __vector_offset_173 = DEFINED (__vector_dispatch_173)?(. - _ebase_address):__vector_offset_default
 *(.vector_173)
                0x000000009d001ec0                . = ALIGN (0x4)
                0x0000000000001ec0                __vector_offset_174 = DEFINED (__vector_dispatch_174)?(. - _ebase_address):__vector_offset_default
 *(.vector_174)
                0x000000009d001ec0                . = ALIGN (0x4)
                0x0000000000001ec0                __vector_offset_175 = DEFINED (__vector_dispatch_175)?(. - _ebase_address):__vector_offset_default
 *(.vector_175)
                0x000000009d001ec0                . = ALIGN (0x4)
                0x0000000000001ec0                __vector_offset_176 = DEFINED (__vector_dispatch_176)?(. - _ebase_address):__vector_offset_default
 *(.vector_176)
                0x000000009d001ec0                . = ALIGN (0x4)
                0x0000000000001ec0                __vector_offset_177 = DEFINED (__vector_dispatch_177)?(. - _ebase_address):__vector_offset_default
 *(.vector_177)
                0x000000009d001ec0                . = ALIGN (0x4)
                0x0000000000001ec0                __vector_offset_178 = DEFINED (__vector_dispatch_178)?(. - _ebase_address):__vector_offset_default
 *(.vector_178)
                0x000000009d001ec0                . = ALIGN (0x4)
                0x0000000000001ec0                __vector_offset_179 = DEFINED (__vector_dispatch_179)?(. - _ebase_address):__vector_offset_default
 *(.vector_179)
                0x000000009d001ec0                . = ALIGN (0x4)
                0x0000000000001ec0                __vector_offset_180 = DEFINED (__vector_dispatch_180)?(. - _ebase_address):__vector_offset_default
 *(.vector_180)
                0x000000009d001ec0                . = ALIGN (0x4)
                0x0000000000001ec0                __vector_offset_181 = DEFINED (__vector_dispatch_181)?(. - _ebase_address):__vector_offset_default
 *(.vector_181)
                0x000000009d001ec0                . = ALIGN (0x4)
                0x0000000000001ec0                __vector_offset_182 = DEFINED (__vector_dispatch_182)?(. - _ebase_address):__vector_offset_default
 *(.vector_182)
                0x000000009d001ec0                . = ALIGN (0x4)
                0x0000000000001ec0                __vector_offset_183 = DEFINED (__vector_dispatch_183)?(. - _ebase_address):__vector_offset_default
 *(.vector_183)
                0x000000009d001ec0                . = ALIGN (0x4)
                0x0000000000001ec0                __vector_offset_184 = DEFINED (__vector_dispatch_184)?(. - _ebase_address):__vector_offset_default
 *(.vector_184)
                0x000000009d001ec0                . = ALIGN (0x4)
                0x0000000000001ec0                __vector_offset_185 = DEFINED (__vector_dispatch_185)?(. - _ebase_address):__vector_offset_default
 *(.vector_185)
                0x000000009d001ec0                . = ALIGN (0x4)
                0x0000000000001ec0                __vector_offset_186 = DEFINED (__vector_dispatch_186)?(. - _ebase_address):__vector_offset_default
 *(.vector_186)
                0x000000009d001ec0                . = ALIGN (0x4)
                0x0000000000001ec0                __vector_offset_187 = DEFINED (__vector_dispatch_187)?(. - _ebase_address):__vector_offset_default
 *(.vector_187)
                0x000000009d001ec0                . = ALIGN (0x4)
                0x0000000000001ec0                __vector_offset_188 = DEFINED (__vector_dispatch_188)?(. - _ebase_address):__vector_offset_default
 *(.vector_188)
                0x000000009d001ec0                . = ALIGN (0x4)
                0x0000000000001ec0                __vector_offset_189 = DEFINED (__vector_dispatch_189)?(. - _ebase_address):__vector_offset_default
 *(.vector_189)
                0x000000009d001ec0                . = ALIGN (0x4)
                0x0000000000001ec0                __vector_offset_190 = DEFINED (__vector_dispatch_190)?(. - _ebase_address):__vector_offset_default
 *(.vector_190)
                0x000000009d001ec0                . = ALIGN (0x4)
                0x0000000000001ec0                __vector_offset_191 = DEFINED (__vector_dispatch_191)?(. - _ebase_address):__vector_offset_default
 *(.vector_191)
                0x000000009d001ec0                . = ALIGN (0x4)
                0x0000000000001ec0                __vector_offset_192 = DEFINED (__vector_dispatch_192)?(. - _ebase_address):__vector_offset_default
 *(.vector_192)
                0x000000009d001ec0                . = ALIGN (0x4)
                0x0000000000001ec0                __vector_offset_193 = DEFINED (__vector_dispatch_193)?(. - _ebase_address):__vector_offset_default
 *(.vector_193)
                0x000000009d001ec0                . = ALIGN (0x4)
                0x0000000000001ec0                __vector_offset_194 = DEFINED (__vector_dispatch_194)?(. - _ebase_address):__vector_offset_default
 *(.vector_194)
                0x000000009d001ec0                . = ALIGN (0x4)
                0x0000000000001ec0                __vector_offset_195 = DEFINED (__vector_dispatch_195)?(. - _ebase_address):__vector_offset_default
 *(.vector_195)
                0x000000009d001ec0                . = ALIGN (0x4)
                0x0000000000001ec0                __vector_offset_196 = DEFINED (__vector_dispatch_196)?(. - _ebase_address):__vector_offset_default
 *(.vector_196)
                0x000000009d001ec0                . = ALIGN (0x4)
                0x0000000000001ec0                __vector_offset_197 = DEFINED (__vector_dispatch_197)?(. - _ebase_address):__vector_offset_default
 *(.vector_197)
                0x000000009d001ec0                . = ALIGN (0x4)
                0x0000000000001ec0                __vector_offset_198 = DEFINED (__vector_dispatch_198)?(. - _ebase_address):__vector_offset_default
 *(.vector_198)
                0x000000009d001ec0                . = ALIGN (0x4)
                0x0000000000001ec0                __vector_offset_199 = DEFINED (__vector_dispatch_199)?(. - _ebase_address):__vector_offset_default
 *(.vector_199)
                0x000000009d001ec0                . = ALIGN (0x4)
                0x0000000000001ec0                __vector_offset_200 = DEFINED (__vector_dispatch_200)?(. - _ebase_address):__vector_offset_default
 *(.vector_200)
                0x000000009d001ec0                . = ALIGN (0x4)
                0x0000000000001ec0                __vector_offset_201 = DEFINED (__vector_dispatch_201)?(. - _ebase_address):__vector_offset_default
 *(.vector_201)
                0x000000009d001ec0                . = ALIGN (0x4)
                0x0000000000001ec0                __vector_offset_202 = DEFINED (__vector_dispatch_202)?(. - _ebase_address):__vector_offset_default
 *(.vector_202)
                0x000000009d001ec0                . = ALIGN (0x4)
                0x0000000000001ec0                __vector_offset_203 = DEFINED (__vector_dispatch_203)?(. - _ebase_address):__vector_offset_default
 *(.vector_203)
                0x000000009d001ec0                . = ALIGN (0x4)
                0x0000000000001ec0                __vector_offset_204 = DEFINED (__vector_dispatch_204)?(. - _ebase_address):__vector_offset_default
 *(.vector_204)
                0x000000009d001ec0                . = ALIGN (0x4)
                0x0000000000001ec0                __vector_offset_205 = DEFINED (__vector_dispatch_205)?(. - _ebase_address):__vector_offset_default
 *(.vector_205)
                0x000000009d001ec0                . = ALIGN (0x4)
                0x0000000000001ec0                __vector_offset_206 = DEFINED (__vector_dispatch_206)?(. - _ebase_address):__vector_offset_default
 *(.vector_206)
                0x000000009d001ec0                . = ALIGN (0x4)
                0x0000000000001ec0                __vector_offset_207 = DEFINED (__vector_dispatch_207)?(. - _ebase_address):__vector_offset_default
 *(.vector_207)
                0x000000009d001ec0                . = ALIGN (0x4)
                0x0000000000001ec0                __vector_offset_208 = DEFINED (__vector_dispatch_208)?(. - _ebase_address):__vector_offset_default
 *(.vector_208)
                0x000000009d001ec0                . = ALIGN (0x4)
                0x0000000000001ec0                __vector_offset_209 = DEFINED (__vector_dispatch_209)?(. - _ebase_address):__vector_offset_default
 *(.vector_209)
                0x000000009d001ec0                . = ALIGN (0x4)
                0x0000000000001ec0                __vector_offset_210 = DEFINED (__vector_dispatch_210)?(. - _ebase_address):__vector_offset_default
 *(.vector_210)
                0x000000009d001ec0                . = ALIGN (0x4)
                0x0000000000001ec0                __vector_offset_211 = DEFINED (__vector_dispatch_211)?(. - _ebase_address):__vector_offset_default
 *(.vector_211)
                0x000000009d001ec0                . = ALIGN (0x4)
                0x0000000000001ec0                __vector_offset_212 = DEFINED (__vector_dispatch_212)?(. - _ebase_address):__vector_offset_default
 *(.vector_212)
                0x000000009d001ec0                . = ALIGN (0x4)
                0x0000000000001ec0                __vector_offset_213 = DEFINED (__vector_dispatch_213)?(. - _ebase_address):__vector_offset_default
 *(.vector_213)
                0x000000009d001ec0                . = ALIGN (0x4)
                0x0000000000001ec0                __vector_offset_214 = DEFINED (__vector_dispatch_214)?(. - _ebase_address):__vector_offset_default
 *(.vector_214)
                0x000000009d001ec0                . = ALIGN (0x4)
                0x0000000000001ec0                __vector_offset_215 = DEFINED (__vector_dispatch_215)?(. - _ebase_address):__vector_offset_default
 *(.vector_215)
                0x000000009d001ec0                . = ALIGN (0x4)
                0x0000000000001ec0                __vector_offset_216 = DEFINED (__vector_dispatch_216)?(. - _ebase_address):__vector_offset_default
 *(.vector_216)
                0x000000009d001ec0                . = ALIGN (0x4)
                0x0000000000001ec0                __vector_offset_217 = DEFINED (__vector_dispatch_217)?(. - _ebase_address):__vector_offset_default
 *(.vector_217)
                0x000000009d001ec0                . = ALIGN (0x4)
                0x0000000000001ec0                __vector_offset_218 = DEFINED (__vector_dispatch_218)?(. - _ebase_address):__vector_offset_default
 *(.vector_218)
                0x000000009d001ec0                . = ALIGN (0x4)
                0x0000000000001ec0                __vector_offset_219 = DEFINED (__vector_dispatch_219)?(. - _ebase_address):__vector_offset_default
 *(.vector_219)
                0x000000009d001ec0                . = ALIGN (0x4)
                0x0000000000001ec0                __vector_offset_220 = DEFINED (__vector_dispatch_220)?(. - _ebase_address):__vector_offset_default
 *(.vector_220)
                0x000000009d001ec0                . = ALIGN (0x4)
                0x0000000000001ec0                __vector_offset_221 = DEFINED (__vector_dispatch_221)?(. - _ebase_address):__vector_offset_default
 *(.vector_221)
                0x000000009d001ec0                . = ALIGN (0x4)
                0x0000000000001ec0                __vector_offset_222 = DEFINED (__vector_dispatch_222)?(. - _ebase_address):__vector_offset_default
 *(.vector_222)
                0x000000009d001ec0                . = ALIGN (0x4)
                0x0000000000001ec0                __vector_offset_223 = DEFINED (__vector_dispatch_223)?(. - _ebase_address):__vector_offset_default
 *(.vector_223)
                0x000000009d001ec0                . = ALIGN (0x4)
                0x0000000000001ec0                __vector_offset_224 = DEFINED (__vector_dispatch_224)?(. - _ebase_address):__vector_offset_default
 *(.vector_224)
                0x000000009d001ec0                . = ALIGN (0x4)
                0x0000000000001ec0                __vector_offset_225 = DEFINED (__vector_dispatch_225)?(. - _ebase_address):__vector_offset_default
 *(.vector_225)
                0x000000009d001ec0                . = ALIGN (0x4)
                0x0000000000001ec0                __vector_offset_226 = DEFINED (__vector_dispatch_226)?(. - _ebase_address):__vector_offset_default
 *(.vector_226)
                0x000000009d001ec0                . = ALIGN (0x4)
                0x0000000000001ec0                __vector_offset_227 = DEFINED (__vector_dispatch_227)?(. - _ebase_address):__vector_offset_default
 *(.vector_227)
                0x000000009d001ec0                . = ALIGN (0x4)
                0x0000000000001ec0                __vector_offset_228 = DEFINED (__vector_dispatch_228)?(. - _ebase_address):__vector_offset_default
 *(.vector_228)
                0x000000009d001ec0                . = ALIGN (0x4)
                0x0000000000001ec0                __vector_offset_229 = DEFINED (__vector_dispatch_229)?(. - _ebase_address):__vector_offset_default
 *(.vector_229)
                0x000000009d001ec0                . = ALIGN (0x4)
                0x0000000000001ec0                __vector_offset_230 = DEFINED (__vector_dispatch_230)?(. - _ebase_address):__vector_offset_default
 *(.vector_230)
                0x000000009d001ec0                . = ALIGN (0x4)
                0x0000000000001ec0                __vector_offset_231 = DEFINED (__vector_dispatch_231)?(. - _ebase_address):__vector_offset_default
 *(.vector_231)
                0x000000009d001ec0                . = ALIGN (0x4)
                0x0000000000001ec0                __vector_offset_232 = DEFINED (__vector_dispatch_232)?(. - _ebase_address):__vector_offset_default
 *(.vector_232)
                0x000000009d001ec0                . = ALIGN (0x4)
                0x0000000000001ec0                __vector_offset_233 = DEFINED (__vector_dispatch_233)?(. - _ebase_address):__vector_offset_default
 *(.vector_233)
                0x000000009d001ec0                . = ALIGN (0x4)
                0x0000000000001ec0                __vector_offset_234 = DEFINED (__vector_dispatch_234)?(. - _ebase_address):__vector_offset_default
 *(.vector_234)
                0x000000009d001ec0                . = ALIGN (0x4)
                0x0000000000001ec0                __vector_offset_235 = DEFINED (__vector_dispatch_235)?(. - _ebase_address):__vector_offset_default
 *(.vector_235)
                0x000000009d001ec0                . = ALIGN (0x4)
                0x0000000000001ec0                __vector_offset_236 = DEFINED (__vector_dispatch_236)?(. - _ebase_address):__vector_offset_default
 *(.vector_236)
                0x000000009d001ec0                . = ALIGN (0x4)
                0x0000000000001ec0                __vector_offset_237 = DEFINED (__vector_dispatch_237)?(. - _ebase_address):__vector_offset_default
 *(.vector_237)
                0x000000009d001ec0                . = ALIGN (0x4)
                0x0000000000001ec0                __vector_offset_238 = DEFINED (__vector_dispatch_238)?(. - _ebase_address):__vector_offset_default
 *(.vector_238)
                0x000000009d001ec0                . = ALIGN (0x4)
                0x0000000000001ec0                __vector_offset_239 = DEFINED (__vector_dispatch_239)?(. - _ebase_address):__vector_offset_default
 *(.vector_239)
                0x000000009d001ec0                . = ALIGN (0x4)
                0x0000000000001ec0                __vector_offset_240 = DEFINED (__vector_dispatch_240)?(. - _ebase_address):__vector_offset_default
 *(.vector_240)
                0x000000009d001ec0                . = ALIGN (0x4)
                0x0000000000001ec0                __vector_offset_241 = DEFINED (__vector_dispatch_241)?(. - _ebase_address):__vector_offset_default
 *(.vector_241)
                0x000000009d001ec0                . = ALIGN (0x4)
                0x0000000000001ec0                __vector_offset_242 = DEFINED (__vector_dispatch_242)?(. - _ebase_address):__vector_offset_default
 *(.vector_242)
                0x000000009d001ec0                . = ALIGN (0x4)
                0x0000000000001ec0                __vector_offset_243 = DEFINED (__vector_dispatch_243)?(. - _ebase_address):__vector_offset_default
 *(.vector_243)
                0x000000009d001ec0                . = ALIGN (0x4)
                0x0000000000001ec0                __vector_offset_244 = DEFINED (__vector_dispatch_244)?(. - _ebase_address):__vector_offset_default
 *(.vector_244)
                0x000000009d001ec0                . = ALIGN (0x4)
                0x0000000000001ec0                __vector_offset_245 = DEFINED (__vector_dispatch_245)?(. - _ebase_address):__vector_offset_default
 *(.vector_245)
                0x000000009d001ec0                . = ALIGN (0x4)
                0x0000000000001ec0                __vector_offset_246 = DEFINED (__vector_dispatch_246)?(. - _ebase_address):__vector_offset_default
 *(.vector_246)
                0x000000009d001ec0                . = ALIGN (0x4)
                0x0000000000001ec0                __vector_offset_247 = DEFINED (__vector_dispatch_247)?(. - _ebase_address):__vector_offset_default
 *(.vector_247)
                0x000000009d001ec0                . = ALIGN (0x4)
                0x0000000000001ec0                __vector_offset_248 = DEFINED (__vector_dispatch_248)?(. - _ebase_address):__vector_offset_default
 *(.vector_248)
                0x000000009d001ec0                . = ALIGN (0x4)
                0x0000000000001ec0                __vector_offset_249 = DEFINED (__vector_dispatch_249)?(. - _ebase_address):__vector_offset_default
 *(.vector_249)
                0x000000009d001ec0                . = ALIGN (0x4)
                0x0000000000001ec0                __vector_offset_250 = DEFINED (__vector_dispatch_250)?(. - _ebase_address):__vector_offset_default
 *(.vector_250)
                0x000000009d001ec0                . = ALIGN (0x4)
                0x0000000000001ec0                __vector_offset_251 = DEFINED (__vector_dispatch_251)?(. - _ebase_address):__vector_offset_default
 *(.vector_251)
                0x000000009d001ec0                . = ALIGN (0x4)
                0x0000000000001ec0                __vector_offset_252 = DEFINED (__vector_dispatch_252)?(. - _ebase_address):__vector_offset_default
 *(.vector_252)
                0x000000009d001ec0                . = ALIGN (0x4)
                0x0000000000001ec0                __vector_offset_253 = DEFINED (__vector_dispatch_253)?(. - _ebase_address):__vector_offset_default
 *(.vector_253)
                0x000000009d001ec0                . = ALIGN (0x4)
                0x0000000000001ec0                __vector_offset_254 = DEFINED (__vector_dispatch_254)?(. - _ebase_address):__vector_offset_default
 *(.vector_254)
                0x000000009d001ec0                . = ALIGN (0x4)
                0x0000000000001ec0                __vector_offset_255 = DEFINED (__vector_dispatch_255)?(. - _ebase_address):__vector_offset_default
 *(.vector_255)
                0x000000009d001ec0                . = ALIGN (0x4)
                0x0000000000001ec0                __vector_offset_default = (. - _ebase_address)
 *(.vector_default)
 .vector_default
                0x000000009d001ec0       0x48 /opt/microchip/xc32/v4.35/bin/bin/../../lib/gcc/pic32mx/8.3.1/../../../../pic32mx/lib/fpu64/libpic32.a(defaultinterrupt.o)
                0x000000009d001ec0                _DefaultInterrupt

.startup
 *(.startup)

.text           0x000000009d001f08        0x0
 *(.stub .gnu.linkonce.t.*)
 *(.text.*personality*)
 *(.mips16.fn.*)
 *(.mips16.call.*)
 *(.gnu.warning)
                0x000000009d001f08                . = ALIGN (0x4)

.init           0x000000009d001f08        0x0
 *crti.o(.init)
 *crtbegin.o(.init)
 *(EXCLUDE_FILE(*crtn.o *crtend?.o *crtend.o) .init)
 *crtend.o(.init)
 *crtn.o(.init)
                0x000000009d001f08                . = ALIGN (0x4)

.fini           0x000000009d001f08        0x0
 *(.fini)
                0x000000009d001f08                . = ALIGN (0x4)

.preinit_array  0x000000009d001f08        0x0
                [!provide]                        PROVIDE (__preinit_array_start = .)
 *(.preinit_array)
                [!provide]                        PROVIDE (__preinit_array_end = .)
                0x000000009d001f08                . = ALIGN (0x4)

.init_array     0x000000009d001f08        0x0
                [!provide]                        PROVIDE (__init_array_start = .)
 *(SORT_BY_NAME(.init_array.*))
 *(.init_array)
                [!provide]                        PROVIDE (__init_array_end = .)
                0x000000009d001f08                . = ALIGN (0x4)

.fini_array     0x000000009d001f08        0x0
                [!provide]                        PROVIDE (__fini_array_start = .)
 *(SORT_BY_NAME(.fini_array.*))
 *(.fini_array)
                [!provide]                        PROVIDE (__fini_array_end = .)
                0x000000009d001f08                . = ALIGN (0x4)

.ctors          0x000000009d001f08        0x0
 *crtbegin.o(.ctors)
 *crtbegin?.o(.ctors)
 *(EXCLUDE_FILE(*crtend?.o *crtend.o) .ctors)
 *(SORT_BY_NAME(.ctors.*))
 *(.ctors)
                0x000000009d001f08                . = ALIGN (0x4)

.dtors          0x000000009d001f08        0x0
 *crtbegin.o(.dtors)
 *crtbegin?.o(.dtors)
 *(EXCLUDE_FILE(*crtend?.o *crtend.o) .dtors)
 *(SORT_BY_NAME(.dtors.*))
 *(.dtors)
                0x000000009d001f08                . = ALIGN (0x4)

.rodata         0x000000009d001f08        0x0
 *(.gnu.linkonce.r.*)
 *(.rodata1)
                0x000000009d001f08                . = ALIGN (0x4)

.sdata2         0x000000009d001f08        0x0
 *(.sdata2 .sdata2.* .gnu.linkonce.s2.*)
                0x000000009d001f08                . = ALIGN (0x4)

.sbss2          0x000000009d001f08        0x0
 *(.sbss2 .sbss2.* .gnu.linkonce.sb2.*)
                0x000000009d001f08                . = ALIGN (0x4)

.eh_frame_hdr
 *(.eh_frame_hdr)
                0x000000009d001f08                . = ALIGN (0x4)

.eh_frame
 *(.eh_frame)
                0x000000009d001f08                . = ALIGN (0x4)

.gcc_except_table
 *(.gcc_except_table .gcc_except_table.*)
                0x000000009d001f08                . = ALIGN (0x4)

.dbg_data       0x0000000080000000        0x0
                0x0000000080000000                . = (. + DEFINED (_DEBUGGER)?0x200:0x0)
                0x0000000080000000                . = (. + DEFINED (_DEBUGGER)?0x80:0x0)
                0x0000000080000000                . = (. + DEFINED (_DEBUGGER)?0x100:0x0)

.jcr            0x0000000080000000        0x0
 *(.jcr)
                0x0000000080000000                . = ALIGN (0x4)

.eh_frame
 *(.eh_frame)
                0x0000000080000000                . = ALIGN (0x4)

.gcc_except_table
 *(.gcc_except_table .gcc_except_table.*)
                0x0000000080000000                . = ALIGN (0x4)

.persist        0x0000000080000000        0x0
                0x0000000080000000                _persist_begin = .
 *(.persist .persist.*)
                0x0000000080000000                . = ALIGN (0x4)
                0x0000000080000000                _persist_end = .

.data           0x0000000080000000        0x0
 *(.gnu.linkonce.d.*)
 *(.data1)
                0x0000000080000000                . = ALIGN (0x4)
                0x0000000080000000                . = .
                0x0000000080007ff0                _gp = (ALIGN (0x10) + 0x7ff0)

.got            0x0000000080000000        0x0
 *(.got.plt)
 *(.got)
                0x0000000080000000                . = ALIGN (0x4)

.sdata          0x0000000080000000       0x64
                0x0000000080000000                _sdata_begin = .
 *(.sdata .sdata.* .gnu.linkonce.s.*)
 .sdata         0x0000000080000000        0x8 build/default/production/_ext/1865254177/plib_gpio.o
 .sdata         0x0000000080000008        0x2 build/default/production/_ext/101884895/sys_time.o
 *fill*         0x000000008000000a        0x2 
 .sdata         0x000000008000000c        0x4 build/default/production/_ext/951553246/port.o
                0x000000008000000c                uxInterruptNesting
 .sdata         0x0000000080000010        0x4 build/default/production/_ext/1667573777/m2m_wifi.o
 .sdata         0x0000000080000014        0x2 build/default/production/_ext/1667573777/nmbus.o
                0x0000000080000014                egstrNmBusCapabilities
 *fill*         0x0000000080000016        0x2 
 .sdata         0x0000000080000018       0x22 build/default/production/_ext/651226651/gatt_server.o
 *fill*         0x000000008000003a        0x2 
 .sdata         0x000000008000003c        0x4 build/default/production/_ext/1667573777/m2m_ssl.o
 .sdata         0x0000000080000040       0x24 /opt/microchip/xc32/v4.35/bin/bin/../../lib/gcc/pic32mx/8.3.1/../../../../pic32mx/lib/fpu64/libpic32.a(pic32_init_cache.o)
                0x0000000080000040                __pic32_icache_size
                0x0000000080000044                __pic32_icache_linesize
                0x0000000080000048                __pic32_icache_ways
                0x000000008000004c                __pic32_dcache_size
                0x0000000080000050                __pic32_dcache_linesize
                0x0000000080000054                __pic32_dcache_ways
                0x0000000080000058                __pic32_scache_size
                0x000000008000005c                __pic32_scache_linesize
                0x0000000080000060                __pic32_scache_ways
                0x0000000080000064                . = ALIGN (0x4)
                0x0000000080000064                _sdata_end = .

.lit8
 *(.lit8)

.lit4
 *(.lit4)
                0x0000000080000064                . = ALIGN (0x4)
                0x0000000080000064                _data_end = .
                0x0000000080000064                _bss_begin = .

.sbss           0x0000000080000064      0x138
                0x0000000080000064                _sbss_begin = .
 *(.dynsbss)
 *(.sbss .sbss.* .gnu.linkonce.sb.*)
 .sbss          0x0000000080000064        0x8 build/default/production/_ext/1249264884/plib_coretimer.o
 .sbss          0x000000008000006c        0x8 build/default/production/_ext/60181895/plib_tmr9.o
 .sbss          0x0000000080000074        0x8 build/default/production/_ext/60181895/plib_tmr8.o
 .sbss          0x000000008000007c        0x8 build/default/production/_ext/1832805299/sys_console.o
 .sbss          0x0000000080000084        0xc build/default/production/_ext/944882569/sys_debug.o
                0x000000008000008c                gblErrLvl
 .sbss          0x0000000080000090        0x4 build/default/production/_ext/1171490990/tasks.o
                0x0000000080000090                xAPP_Tasks
 .sbss          0x0000000080000094        0x8 build/default/production/_ext/1171490990/exceptions.o
 .sbss          0x000000008000009c        0x8 build/default/production/_ext/1665200909/heap_1.o
 .sbss          0x00000000800000a4        0x4 build/default/production/_ext/951553246/port.o
                0x00000000800000a4                uxSavedTaskStackPointer
 .sbss          0x00000000800000a8       0x3c build/default/production/_ext/404212886/FreeRTOS_tasks.o
                0x00000000800000a8                pxCurrentTCB
 .sbss          0x00000000800000e4        0xc build/default/production/_ext/1360937237/app.o
                0x00000000800000e8                appData
 .sbss          0x00000000800000f0       0x14 build/default/production/_ext/651226651/event.o
                0x00000000800000f8                watched_event
 .sbss          0x0000000080000104        0x5 build/default/production/_ext/1667573777/m2m_hif.o
 *fill*         0x0000000080000109        0x3 
 .sbss          0x000000008000010c       0x20 build/default/production/_ext/651226651/interface.o
 .sbss          0x000000008000012c        0x4 build/default/production/_ext/1908349716/spi_flash.o
 .sbss          0x0000000080000130       0x1a build/default/production/_ext/2094051164/socket.o
                0x0000000080000130                gu16SessionID
                0x0000000080000134                gpfAppSocketCb
                0x0000000080000138                gpfAppResolveCb
                0x000000008000013c                gbSocketInit
 .sbss          0x000000008000014a        0x1 build/default/production/_ext/1697030576/wdrv_winc_spi.o
 *fill*         0x000000008000014b        0x1 
 .sbss          0x000000008000014c       0x12 build/default/production/_ext/1667573777/m2m_wifi.o
 *fill*         0x000000008000015e        0x2 
 .sbss          0x0000000080000160        0x8 build/default/production/_ext/1667573777/nmspi.o
 .sbss          0x0000000080000168        0x1 build/default/production/_ext/1954180691/wdrv_winc_ble.o
 *fill*         0x0000000080000169        0x3 
 .sbss          0x000000008000016c        0x4 build/default/production/_ext/1667573777/nmdrv.o
 .sbss          0x0000000080000170        0x4 build/default/production/_ext/1667573777/m2m_ota.o
 .sbss          0x0000000080000174        0xc build/default/production/_ext/1306418660/platform.o
 .sbss          0x0000000080000180        0x8 build/default/production/_ext/651226651/htpt.o
                0x0000000080000180                htpt
 .sbss          0x0000000080000188        0x8 build/default/production/_ext/1667573777/m2m_ssl.o
 .sbss          0x0000000080000190        0x4 build/default/production/_ext/1667573777/nmasic.o
 .sbss          0x0000000080000194        0x5 build/default/production/example.o
 *(.scommon)
                0x0000000080000199                _sbss_end = .
                0x000000008000019c                . = ALIGN (0x4)
 *fill*         0x0000000080000199        0x3 

.bss            0x000000008000019c        0x0
 *(.dynbss)
 *(COMMON)
                0x000000008000019c                . = ALIGN ((. != 0x0)?0x4:0x1)
                0x000000008000019c                . = ALIGN (0x4)
                0x000000008000019c                _end = .
                0x000000008000019c                _bss_end = .
                0x0000000000080000                _bmxdudba_address = LENGTH (kseg0_data_mem)
                0x0000000000080000                _bmxdupba_address = LENGTH (kseg0_data_mem)

/DISCARD/
 *(.pdr)
 *(.rel.dyn)
 *(.note.GNU-stack)
 *(.note.GNU-stack)
 *(.gnu_debuglink)
 *(.gnu.lto_*)
 *(.discard)

.gptab.sdata
 *(.gptab.data)
 *(.gptab.sdata)

.gptab.sbss
 *(.gptab.bss)
 *(.gptab.sbss)

.mdebug.abi32   0x0000000000000000        0x0
 *(.mdebug.abi32)
 .mdebug.abi32  0x0000000000000000        0x0 build/default/production/_ext/1529399856/osal_freertos.o
 .mdebug.abi32  0x0000000000000000        0x0 build/default/production/_ext/60165520/plib_clk.o
 .mdebug.abi32  0x0000000000000000        0x0 build/default/production/_ext/1249264884/plib_coretimer.o
 .mdebug.abi32  0x0000000000000000        0x0 build/default/production/_ext/1865200349/plib_evic.o
 .mdebug.abi32  0x0000000000000000        0x0 build/default/production/_ext/1865254177/plib_gpio.o
 .mdebug.abi32  0x0000000000000000        0x0 build/default/production/_ext/60181895/plib_tmr9.o
 .mdebug.abi32  0x0000000000000000        0x0 build/default/production/_ext/60181895/plib_tmr8.o
 .mdebug.abi32  0x0000000000000000        0x0 build/default/production/_ext/1865657120/plib_uart2.o
 .mdebug.abi32  0x0000000000000000        0x0 build/default/production/_ext/163028504/xc32_monitor.o
 .mdebug.abi32  0x0000000000000000        0x0 build/default/production/_ext/1832805299/sys_console_uart.o
 .mdebug.abi32  0x0000000000000000        0x0 build/default/production/_ext/1832805299/sys_console.o
 .mdebug.abi32  0x0000000000000000        0x0 build/default/production/_ext/944882569/sys_debug.o
 .mdebug.abi32  0x0000000000000000        0x0 build/default/production/_ext/14461671/sys_dma.o
 .mdebug.abi32  0x0000000000000000        0x0 build/default/production/_ext/1881668453/sys_int.o
 .mdebug.abi32  0x0000000000000000        0x0 build/default/production/_ext/101884895/sys_time.o
 .mdebug.abi32  0x0000000000000000        0x0 build/default/production/_ext/1171490990/freertos_hooks.o
 .mdebug.abi32  0x0000000000000000        0x0 build/default/production/_ext/1171490990/interrupts.o
 .mdebug.abi32  0x0000000000000000        0x0 build/default/production/_ext/1171490990/tasks.o
 .mdebug.abi32  0x0000000000000000        0x0 build/default/production/_ext/1171490990/initialization.o
 .mdebug.abi32  0x0000000000000000        0x0 build/default/production/_ext/1171490990/exceptions.o
 .mdebug.abi32  0x0000000000000000        0x0 build/default/production/_ext/1665200909/heap_1.o
 .mdebug.abi32  0x0000000000000000        0x0 build/default/production/_ext/951553246/port.o
 .mdebug.abi32  0x0000000000000000        0x0 build/default/production/_ext/404212886/croutine.o
 .mdebug.abi32  0x0000000000000000        0x0 build/default/production/_ext/404212886/queue.o
 .mdebug.abi32  0x0000000000000000        0x0 build/default/production/_ext/404212886/timers.o
 .mdebug.abi32  0x0000000000000000        0x0 build/default/production/_ext/404212886/stream_buffer.o
 .mdebug.abi32  0x0000000000000000        0x0 build/default/production/_ext/404212886/event_groups.o
 .mdebug.abi32  0x0000000000000000        0x0 build/default/production/_ext/404212886/FreeRTOS_tasks.o
 .mdebug.abi32  0x0000000000000000        0x0 build/default/production/_ext/404212886/list.o
 .mdebug.abi32  0x0000000000000000        0x0 build/default/production/_ext/1360937237/app.o
 .mdebug.abi32  0x0000000000000000        0x0 build/default/production/_ext/1360937237/main.o
 .mdebug.abi32  0x0000000000000000        0x0 build/default/production/_ext/1954180691/wdrv_winc.o
 .mdebug.abi32  0x0000000000000000        0x0 build/default/production/_ext/1865161661/plib_dmac.o
 .mdebug.abi32  0x0000000000000000        0x0 build/default/production/_ext/1954180691/wdrv_winc_nvm.o
 .mdebug.abi32  0x0000000000000000        0x0 build/default/production/_ext/651226651/event.o
 .mdebug.abi32  0x0000000000000000        0x0 build/default/production/_ext/1954180691/wdrv_winc_bssctx.o
 .mdebug.abi32  0x0000000000000000        0x0 build/default/production/_ext/651226651/gatt_client.o
 .mdebug.abi32  0x0000000000000000        0x0 build/default/production/_ext/298189674/plib_spi1_master.o
 .mdebug.abi32  0x0000000000000000        0x0 build/default/production/_ext/1954180691/wdrv_winc_powersave.o
 .mdebug.abi32  0x0000000000000000        0x0 build/default/production/_ext/1954180691/wdrv_winc_systime.o
 .mdebug.abi32  0x0000000000000000        0x0 build/default/production/_ext/651226651/gattc_task.o
 .mdebug.abi32  0x0000000000000000        0x0 build/default/production/_ext/1667573777/m2m_hif.o
 .mdebug.abi32  0x0000000000000000        0x0 build/default/production/_ext/1667573777/m2m_periph.o
 .mdebug.abi32  0x0000000000000000        0x0 build/default/production/_ext/1068697685/wdrv_winc_eint.o
 .mdebug.abi32  0x0000000000000000        0x0 build/default/production/_ext/651226651/interface.o
 .mdebug.abi32  0x0000000000000000        0x0 build/default/production/_ext/651226651/gapc_task.o
 .mdebug.abi32  0x0000000000000000        0x0 build/default/production/_ext/651226651/error.o
 .mdebug.abi32  0x0000000000000000        0x0 build/default/production/_ext/1954180691/wdrv_winc_sta.o
 .mdebug.abi32  0x0000000000000000        0x0 build/default/production/_ext/651226651/wifiprov_task.o
 .mdebug.abi32  0x0000000000000000        0x0 build/default/production/_ext/1908349716/spi_flash.o
 .mdebug.abi32  0x0000000000000000        0x0 build/default/production/_ext/2094051164/socket.o
 .mdebug.abi32  0x0000000000000000        0x0 build/default/production/_ext/1697030576/wdrv_winc_spi.o
 .mdebug.abi32  0x0000000000000000        0x0 build/default/production/_ext/1667573777/m2m_wifi.o
 .mdebug.abi32  0x0000000000000000        0x0 build/default/production/_ext/1667573777/nmbus.o
 .mdebug.abi32  0x0000000000000000        0x0 build/default/production/_ext/1954180691/wdrv_winc_wps.o
 .mdebug.abi32  0x0000000000000000        0x0 build/default/production/_ext/651226651/gatt_server.o
 .mdebug.abi32  0x0000000000000000        0x0 build/default/production/_ext/1954180691/wdrv_winc_httpprovctx.o
 .mdebug.abi32  0x0000000000000000        0x0 build/default/production/_ext/1954180691/wdrv_winc_softap.o
 .mdebug.abi32  0x0000000000000000        0x0 build/default/production/_ext/1667573777/nmspi.o
 .mdebug.abi32  0x0000000000000000        0x0 build/default/production/_ext/1954180691/wdrv_winc_ble.o
 .mdebug.abi32  0x0000000000000000        0x0 build/default/production/_ext/1667573777/nmdrv.o
 .mdebug.abi32  0x0000000000000000        0x0 build/default/production/_ext/2094051164/inet_addr.o
 .mdebug.abi32  0x0000000000000000        0x0 build/default/production/_ext/1667573777/m2m_ota.o
 .mdebug.abi32  0x0000000000000000        0x0 build/default/production/_ext/2018374705/wdrv_winc_osal.o
 .mdebug.abi32  0x0000000000000000        0x0 build/default/production/_ext/1954180691/wdrv_winc_authctx.o
 .mdebug.abi32  0x0000000000000000        0x0 build/default/production/_ext/1306418660/platform.o
 .mdebug.abi32  0x0000000000000000        0x0 build/default/production/_ext/1954180691/wdrv_winc_bssfind.o
 .mdebug.abi32  0x0000000000000000        0x0 build/default/production/_ext/651226651/gattm_task.o
 .mdebug.abi32  0x0000000000000000        0x0 build/default/production/_ext/1954180691/wdrv_winc_custie.o
 .mdebug.abi32  0x0000000000000000        0x0 build/default/production/_ext/1954180691/wdrv_winc_enterprise.o
 .mdebug.abi32  0x0000000000000000        0x0 build/default/production/_ext/651226651/htpt.o
 .mdebug.abi32  0x0000000000000000        0x0 build/default/production/_ext/2094051164/inet_ntop.o
 .mdebug.abi32  0x0000000000000000        0x0 build/default/production/_ext/1636284884/nm_common.o
 .mdebug.abi32  0x0000000000000000        0x0 build/default/production/_ext/1667573777/m2m_flash.o
 .mdebug.abi32  0x0000000000000000        0x0 build/default/production/_ext/651226651/gapm_task.o
 .mdebug.abi32  0x0000000000000000        0x0 build/default/production/_ext/1954180691/wdrv_winc_ssl.o
 .mdebug.abi32  0x0000000000000000        0x0 build/default/production/_ext/651226651/dbg_task.o
 .mdebug.abi32  0x0000000000000000        0x0 build/default/production/_ext/2070931557/drv_spi.o
 .mdebug.abi32  0x0000000000000000        0x0 build/default/production/_ext/1954180691/wdrv_winc_socket.o
 .mdebug.abi32  0x0000000000000000        0x0 build/default/production/_ext/651226651/gap.o
 .mdebug.abi32  0x0000000000000000        0x0 build/default/production/_ext/1667573777/m2m_ssl.o
 .mdebug.abi32  0x0000000000000000        0x0 build/default/production/_ext/1068697685/wdrv_winc_gpio.o
 .mdebug.abi32  0x0000000000000000        0x0 build/default/production/_ext/651226651/security.o
 .mdebug.abi32  0x0000000000000000        0x0 build/default/production/_ext/1954180691/wdrv_winc_assoc.o
 .mdebug.abi32  0x0000000000000000        0x0 build/default/production/_ext/651226651/htpt_task.o
 .mdebug.abi32  0x0000000000000000        0x0 build/default/production/_ext/1667573777/nmasic.o
 .mdebug.abi32  0x0000000000000000        0x0 build/default/production/example.o
 .mdebug.abi32  0x0000000000000000        0x0 /opt/microchip/xc32/v4.35/bin/bin/../../lib/gcc/pic32mx/8.3.1/fpu64/libgcc.a(_udivdi3.o)
 .mdebug.abi32  0x0000000000000000        0x0 /opt/microchip/xc32/v4.35/bin/bin/../../lib/gcc/pic32mx/8.3.1/../../../../pic32mx/lib/fpu64/libpic32.a(default-on-reset.o)
 .mdebug.abi32  0x0000000000000000        0x0 /opt/microchip/xc32/v4.35/bin/bin/../../lib/gcc/pic32mx/8.3.1/../../../../pic32mx/lib/fpu64/libpic32.a(default-on-bootstrap.o)
 .mdebug.abi32  0x0000000000000000        0x0 /opt/microchip/xc32/v4.35/bin/bin/../../lib/gcc/pic32mx/8.3.1/../../../../pic32mx/lib/fpu64/libpic32.a(defaultinterrupt.o)
 .mdebug.abi32  0x0000000000000000        0x0 /opt/microchip/xc32/v4.35/bin/bin/../../lib/gcc/pic32mx/8.3.1/../../../../pic32mx/lib/fpu64/libc-musl.a(vsnprintf.o)
 .mdebug.abi32  0x0000000000000000        0x0 /opt/microchip/xc32/v4.35/bin/bin/../../lib/gcc/pic32mx/8.3.1/../../../../pic32mx/lib/fpu64/libc-musl.a(sprintf.o)
 .mdebug.abi32  0x0000000000000000        0x0 /opt/microchip/xc32/v4.35/bin/bin/../../lib/gcc/pic32mx/8.3.1/../../../../pic32mx/lib/fpu64/libc-musl.a(vsprintf.o)
 .mdebug.abi32  0x0000000000000000        0x0 /opt/microchip/xc32/v4.35/bin/bin/../../lib/gcc/pic32mx/8.3.1/../../../../pic32mx/lib/fpu64/libc-musl.a(strchr.o)
 .mdebug.abi32  0x0000000000000000        0x0 /opt/microchip/xc32/v4.35/bin/bin/../../lib/gcc/pic32mx/8.3.1/../../../../pic32mx/lib/fpu64/libc-musl.a(strchrnul.o)
 .mdebug.abi32  0x0000000000000000        0x0 /opt/microchip/xc32/v4.35/bin/bin/../../lib/gcc/pic32mx/8.3.1/../../../../pic32mx/lib/fpu64/libc-musl.a(strnlen.o)
 .mdebug.abi32  0x0000000000000000        0x0 /opt/microchip/xc32/v4.35/bin/bin/../../lib/gcc/pic32mx/8.3.1/../../../../pic32mx/lib/fpu64/libc-musl.a(gmtime.o)
 .mdebug.abi32  0x0000000000000000        0x0 /opt/microchip/xc32/v4.35/bin/bin/../../lib/gcc/pic32mx/8.3.1/../../../../pic32mx/lib/fpu64/libc-musl.a(gmtime_r.o)
 .mdebug.abi32  0x0000000000000000        0x0 /opt/microchip/xc32/v4.35/bin/bin/../../lib/gcc/pic32mx/8.3.1/../../../../pic32mx/lib/fpu64/libc-musl.a(mktime.o)
 .mdebug.abi32  0x0000000000000000        0x0 /opt/microchip/xc32/v4.35/bin/bin/../../lib/gcc/pic32mx/8.3.1/../../../../pic32mx/lib/fpu64/libc-musl.a(vfprintf.o)
 .mdebug.abi32  0x0000000000000000        0x0 /opt/microchip/xc32/v4.35/bin/bin/../../lib/gcc/pic32mx/8.3.1/../../../../pic32mx/lib/fpu64/libc-musl.a(memchr.o)
 .mdebug.abi32  0x0000000000000000        0x0 /opt/microchip/xc32/v4.35/bin/bin/../../lib/gcc/pic32mx/8.3.1/../../../../pic32mx/lib/fpu64/libc-musl.a(__tm_to_secs.o)
 .mdebug.abi32  0x0000000000000000        0x0 /opt/microchip/xc32/v4.35/bin/bin/../../lib/gcc/pic32mx/8.3.1/../../../../pic32mx/lib/fpu64/libc-musl.a(__year_to_secs.o)
 .mdebug.abi32  0x0000000000000000        0x0 /opt/microchip/xc32/v4.35/bin/bin/../../lib/gcc/pic32mx/8.3.1/../../../../pic32mx/lib/fpu64/libc-musl.a(__secs_to_tm.o)
 .mdebug.abi32  0x0000000000000000        0x0 /opt/microchip/xc32/v4.35/bin/bin/../../lib/gcc/pic32mx/8.3.1/../../../../pic32mx/lib/fpu64/libc-musl.a(__io_fmt_needed.o)
 .mdebug.abi32  0x0000000000000000        0x0 /opt/microchip/xc32/v4.35/bin/bin/../../lib/gcc/pic32mx/8.3.1/../../../../pic32mx/lib/fpu64/libc-musl.a(__pop_float.o)
 .mdebug.abi32  0x0000000000000000        0x0 /opt/microchip/xc32/v4.35/bin/bin/../../lib/gcc/pic32mx/8.3.1/../../../../pic32mx/lib/fpu64/libc-musl.a(__pop_int.o)
 .mdebug.abi32  0x0000000000000000        0x0 /opt/microchip/xc32/v4.35/bin/bin/../../lib/gcc/pic32mx/8.3.1/../../../../pic32mx/lib/fpu64/libc-musl.a(__pop_ptr.o)
 .mdebug.abi32  0x0000000000000000        0x0 /opt/microchip/xc32/v4.35/bin/bin/../../lib/gcc/pic32mx/8.3.1/../../../../pic32mx/lib/fpu64/libc-musl.a(__printf_core.o)
 .mdebug.abi32  0x0000000000000000        0x0 /opt/microchip/xc32/v4.35/bin/bin/../../lib/gcc/pic32mx/8.3.1/../../../../pic32mx/lib/fpu64/libc-musl.a(atoi.o)
 .mdebug.abi32  0x0000000000000000        0x0 /opt/microchip/xc32/v4.35/bin/bin/../../lib/gcc/pic32mx/8.3.1/../../../../pic32mx/lib/fpu64/libc-musl.a(__month_to_secs.o)
 .mdebug.abi32  0x0000000000000000        0x0 /opt/microchip/xc32/v4.35/bin/bin/../../lib/gcc/pic32mx/8.3.1/../../../../pic32mx/lib/fpu64/libc-musl.a(tolower.o)
 .mdebug.abi32  0x0000000000000000        0x0 /opt/microchip/xc32/v4.35/bin/bin/../../lib/gcc/pic32mx/8.3.1/../../../../pic32mx/lib/fpu64/libc-musl.a(__fmt_a.o)
 .mdebug.abi32  0x0000000000000000        0x0 /opt/microchip/xc32/v4.35/bin/bin/../../lib/gcc/pic32mx/8.3.1/../../../../pic32mx/lib/fpu64/libc-musl.a(__fmt_d.o)
 .mdebug.abi32  0x0000000000000000        0x0 /opt/microchip/xc32/v4.35/bin/bin/../../lib/gcc/pic32mx/8.3.1/../../../../pic32mx/lib/fpu64/libc-musl.a(__fmt_fp.o)
 .mdebug.abi32  0x0000000000000000        0x0 /opt/microchip/xc32/v4.35/bin/bin/../../lib/gcc/pic32mx/8.3.1/../../../../pic32mx/lib/fpu64/libc-musl.a(__fmt_o.o)
 .mdebug.abi32  0x0000000000000000        0x0 /opt/microchip/xc32/v4.35/bin/bin/../../lib/gcc/pic32mx/8.3.1/../../../../pic32mx/lib/fpu64/libc-musl.a(__fmt_s.o)
 .mdebug.abi32  0x0000000000000000        0x0 /opt/microchip/xc32/v4.35/bin/bin/../../lib/gcc/pic32mx/8.3.1/../../../../pic32mx/lib/fpu64/libc-musl.a(__fmt_u.o)
 .mdebug.abi32  0x0000000000000000        0x0 /opt/microchip/xc32/v4.35/bin/bin/../../lib/gcc/pic32mx/8.3.1/../../../../pic32mx/lib/fpu64/libc-musl.a(__fmt_x.o)
 .mdebug.abi32  0x0000000000000000        0x0 /opt/microchip/xc32/v4.35/bin/bin/../../lib/gcc/pic32mx/8.3.1/../../../../pic32mx/lib/fpu64/libc-musl.a(strcpy.o)
 .mdebug.abi32  0x0000000000000000        0x0 /opt/microchip/xc32/v4.35/bin/bin/../../lib/gcc/pic32mx/8.3.1/../../../../pic32mx/lib/fpu64/libc-musl.a(toupper.o)
 .mdebug.abi32  0x0000000000000000        0x0 /opt/microchip/xc32/v4.35/bin/bin/../../lib/gcc/pic32mx/8.3.1/../../../../pic32mx/lib/fpu64/libc-musl.a(__cvt_u.o)
 .mdebug.abi32  0x0000000000000000        0x0 /opt/microchip/xc32/v4.35/bin/bin/../../lib/gcc/pic32mx/8.3.1/../../../../pic32mx/lib/fpu64/libc-musl.a(stpcpy.o)
 .mdebug.abi32  0x0000000000000000        0x0 /opt/microchip/xc32/v4.35/bin/bin/../../lib/gcc/pic32mx/8.3.1/../../../../pic32mx/lib/fpu64/libm-musl.a(floor.o)
 .mdebug.abi32  0x0000000000000000        0x0 /opt/microchip/xc32/v4.35/bin/bin/../../lib/gcc/pic32mx/8.3.1/../../../../pic32mx/lib/fpu64/libm-musl.a(fma.o)
 .mdebug.abi32  0x0000000000000000        0x0 /opt/microchip/xc32/v4.35/bin/bin/../../lib/gcc/pic32mx/8.3.1/../../../../pic32mx/lib/fpu64/libm-musl.a(scalbn.o)
 .mdebug.abi32  0x0000000000000000        0x0 /opt/microchip/xc32/v4.35/bin/bin/../../lib/gcc/pic32mx/8.3.1/fpu64/libgcc.a(_lshrdi3.o)
 .mdebug.abi32  0x0000000000000000        0x0 /opt/microchip/xc32/v4.35/bin/bin/../../lib/gcc/pic32mx/8.3.1/fpu64/libgcc.a(_ashldi3.o)
 .mdebug.abi32  0x0000000000000000        0x0 /opt/microchip/xc32/v4.35/bin/bin/../../lib/gcc/pic32mx/8.3.1/fpu64/libgcc.a(_divdi3.o)
 .mdebug.abi32  0x0000000000000000        0x0 /opt/microchip/xc32/v4.35/bin/bin/../../lib/gcc/pic32mx/8.3.1/fpu64/libgcc.a(_moddi3.o)
 .mdebug.abi32  0x0000000000000000        0x0 /opt/microchip/xc32/v4.35/bin/bin/../../lib/gcc/pic32mx/8.3.1/fpu64/libgcc.a(_umoddi3.o)
 .mdebug.abi32  0x0000000000000000        0x0 /opt/microchip/xc32/v4.35/bin/bin/../../lib/gcc/pic32mx/8.3.1/../../../../pic32mx/lib/fpu64/libpic32.a(errno.o)

.mdebug.abiN32
 *(.mdebug.abiN32)

.mdebug.abi64
 *(.mdebug.abi64)

.mdebug.abiO64
 *(.mdebug.abiO64)

.mdebug.eabi32
 *(.mdebug.eabi32)

.mdebug.eabi64
 *(.mdebug.eabi64)

.gcc_compiled_long32
 *(.gcc_compiled_long32)

.gcc_compiled_long64
 *(.gcc_compiled_long64)

.stab
 *(.stab)

.stabstr
 *(.stabstr)

.stab.excl
 *(.stab.excl)

.stab.exclstr
 *(.stab.exclstr)

.stab.index
 *(.stab.index)

.stab.indexstr
 *(.stab.indexstr)

.comment        0x0000000000000000       0x74
 *(.comment)
 .comment       0x0000000000000000       0x2b build/default/production/_ext/1529399856/osal_freertos.o
                                         0x2c (size before relaxing)
 .comment       0x000000000000002b       0x2c build/default/production/_ext/60165520/plib_clk.o
 .comment       0x000000000000002b       0x2c build/default/production/_ext/1249264884/plib_coretimer.o
 .comment       0x000000000000002b       0x2c build/default/production/_ext/1865200349/plib_evic.o
 .comment       0x000000000000002b       0x2c build/default/production/_ext/1865254177/plib_gpio.o
 .comment       0x000000000000002b       0x2c build/default/production/_ext/60181895/plib_tmr9.o
 .comment       0x000000000000002b       0x2c build/default/production/_ext/60181895/plib_tmr8.o
 .comment       0x000000000000002b       0x2c build/default/production/_ext/1865657120/plib_uart2.o
 .comment       0x000000000000002b       0x2c build/default/production/_ext/163028504/xc32_monitor.o
 .comment       0x000000000000002b       0x2c build/default/production/_ext/1832805299/sys_console_uart.o
 .comment       0x000000000000002b       0x2c build/default/production/_ext/1832805299/sys_console.o
 .comment       0x000000000000002b       0x2c build/default/production/_ext/944882569/sys_debug.o
 .comment       0x000000000000002b       0x2c build/default/production/_ext/14461671/sys_dma.o
 .comment       0x000000000000002b       0x2c build/default/production/_ext/1881668453/sys_int.o
 .comment       0x000000000000002b       0x2c build/default/production/_ext/101884895/sys_time.o
 .comment       0x000000000000002b       0x2c build/default/production/_ext/1171490990/freertos_hooks.o
 .comment       0x000000000000002b       0x2c build/default/production/_ext/1171490990/interrupts.o
 .comment       0x000000000000002b       0x2c build/default/production/_ext/1171490990/tasks.o
 .comment       0x000000000000002b       0x2c build/default/production/_ext/1171490990/initialization.o
 .comment       0x000000000000002b       0x2c build/default/production/_ext/1171490990/exceptions.o
 .comment       0x000000000000002b       0x2c build/default/production/_ext/1665200909/heap_1.o
 .comment       0x000000000000002b       0x2c build/default/production/_ext/951553246/port.o
 .comment       0x000000000000002b       0x2c build/default/production/_ext/404212886/croutine.o
 .comment       0x000000000000002b       0x2c build/default/production/_ext/404212886/queue.o
 .comment       0x000000000000002b       0x2c build/default/production/_ext/404212886/timers.o
 .comment       0x000000000000002b       0x2c build/default/production/_ext/404212886/stream_buffer.o
 .comment       0x000000000000002b       0x2c build/default/production/_ext/404212886/event_groups.o
 .comment       0x000000000000002b       0x2c build/default/production/_ext/404212886/FreeRTOS_tasks.o
 .comment       0x000000000000002b       0x2c build/default/production/_ext/404212886/list.o
 .comment       0x000000000000002b       0x2c build/default/production/_ext/1360937237/app.o
 .comment       0x000000000000002b       0x2c build/default/production/_ext/1360937237/main.o
 .comment       0x000000000000002b       0x2c build/default/production/_ext/1954180691/wdrv_winc.o
 .comment       0x000000000000002b       0x2c build/default/production/_ext/1865161661/plib_dmac.o
 .comment       0x000000000000002b       0x2c build/default/production/_ext/1954180691/wdrv_winc_nvm.o
 .comment       0x000000000000002b       0x2c build/default/production/_ext/651226651/event.o
 .comment       0x000000000000002b       0x2c build/default/production/_ext/1954180691/wdrv_winc_bssctx.o
 .comment       0x000000000000002b       0x2c build/default/production/_ext/651226651/gatt_client.o
 .comment       0x000000000000002b       0x2c build/default/production/_ext/298189674/plib_spi1_master.o
 .comment       0x000000000000002b       0x2c build/default/production/_ext/1954180691/wdrv_winc_powersave.o
 .comment       0x000000000000002b       0x2c build/default/production/_ext/1954180691/wdrv_winc_systime.o
 .comment       0x000000000000002b       0x2c build/default/production/_ext/651226651/gattc_task.o
 .comment       0x000000000000002b       0x2c build/default/production/_ext/1667573777/m2m_hif.o
 .comment       0x000000000000002b       0x2c build/default/production/_ext/1667573777/m2m_periph.o
 .comment       0x000000000000002b       0x2c build/default/production/_ext/1068697685/wdrv_winc_eint.o
 .comment       0x000000000000002b       0x2c build/default/production/_ext/651226651/interface.o
 .comment       0x000000000000002b       0x2c build/default/production/_ext/651226651/gapc_task.o
 .comment       0x000000000000002b       0x2c build/default/production/_ext/651226651/error.o
 .comment       0x000000000000002b       0x2c build/default/production/_ext/1954180691/wdrv_winc_sta.o
 .comment       0x000000000000002b       0x2c build/default/production/_ext/651226651/wifiprov_task.o
 .comment       0x000000000000002b       0x2c build/default/production/_ext/1908349716/spi_flash.o
 .comment       0x000000000000002b       0x2c build/default/production/_ext/2094051164/socket.o
 .comment       0x000000000000002b       0x2c build/default/production/_ext/1697030576/wdrv_winc_spi.o
 .comment       0x000000000000002b       0x2c build/default/production/_ext/1667573777/m2m_wifi.o
 .comment       0x000000000000002b       0x2c build/default/production/_ext/1667573777/nmbus.o
 .comment       0x000000000000002b       0x2c build/default/production/_ext/1954180691/wdrv_winc_wps.o
 .comment       0x000000000000002b       0x2c build/default/production/_ext/651226651/gatt_server.o
 .comment       0x000000000000002b       0x2c build/default/production/_ext/1954180691/wdrv_winc_httpprovctx.o
 .comment       0x000000000000002b       0x2c build/default/production/_ext/1954180691/wdrv_winc_softap.o
 .comment       0x000000000000002b       0x2c build/default/production/_ext/1667573777/nmspi.o
 .comment       0x000000000000002b       0x2c build/default/production/_ext/1954180691/wdrv_winc_ble.o
 .comment       0x000000000000002b       0x2c build/default/production/_ext/1667573777/nmdrv.o
 .comment       0x000000000000002b       0x2c build/default/production/_ext/2094051164/inet_addr.o
 .comment       0x000000000000002b       0x2c build/default/production/_ext/1667573777/m2m_ota.o
 .comment       0x000000000000002b       0x2c build/default/production/_ext/2018374705/wdrv_winc_osal.o
 .comment       0x000000000000002b       0x2c build/default/production/_ext/1954180691/wdrv_winc_authctx.o
 .comment       0x000000000000002b       0x2c build/default/production/_ext/1306418660/platform.o
 .comment       0x000000000000002b       0x2c build/default/production/_ext/1954180691/wdrv_winc_bssfind.o
 .comment       0x000000000000002b       0x2c build/default/production/_ext/651226651/gattm_task.o
 .comment       0x000000000000002b       0x2c build/default/production/_ext/1954180691/wdrv_winc_custie.o
 .comment       0x000000000000002b       0x2c build/default/production/_ext/1954180691/wdrv_winc_enterprise.o
 .comment       0x000000000000002b       0x2c build/default/production/_ext/651226651/htpt.o
 .comment       0x000000000000002b       0x2c build/default/production/_ext/2094051164/inet_ntop.o
 .comment       0x000000000000002b       0x2c build/default/production/_ext/1636284884/nm_common.o
 .comment       0x000000000000002b       0x2c build/default/production/_ext/1667573777/m2m_flash.o
 .comment       0x000000000000002b       0x2c build/default/production/_ext/651226651/gapm_task.o
 .comment       0x000000000000002b       0x2c build/default/production/_ext/1954180691/wdrv_winc_ssl.o
 .comment       0x000000000000002b       0x2c build/default/production/_ext/651226651/dbg_task.o
 .comment       0x000000000000002b       0x2c build/default/production/_ext/2070931557/drv_spi.o
 .comment       0x000000000000002b       0x2c build/default/production/_ext/1954180691/wdrv_winc_socket.o
 .comment       0x000000000000002b       0x2c build/default/production/_ext/651226651/gap.o
 .comment       0x000000000000002b       0x2c build/default/production/_ext/1667573777/m2m_ssl.o
 .comment       0x000000000000002b       0x2c build/default/production/_ext/1068697685/wdrv_winc_gpio.o
 .comment       0x000000000000002b       0x2c build/default/production/_ext/651226651/security.o
 .comment       0x000000000000002b       0x2c build/default/production/_ext/1954180691/wdrv_winc_assoc.o
 .comment       0x000000000000002b       0x2c build/default/production/_ext/651226651/htpt_task.o
 .comment       0x000000000000002b       0x2c build/default/production/_ext/1667573777/nmasic.o
 .comment       0x000000000000002b       0x2c build/default/production/example.o
 .comment       0x000000000000002b       0x2c /opt/microchip/xc32/v4.35/bin/bin/../../lib/gcc/pic32mx/8.3.1/fpu64/libgcc.a(_udivdi3.o)
 .comment       0x000000000000002b       0x18 /opt/microchip/xc32/v4.35/bin/bin/../../lib/gcc/pic32mx/8.3.1/../../../../pic32mx/lib/fpu64/libpic32.a(memcmp.o)
                                         0x19 (size before relaxing)
 .comment       0x0000000000000043       0x18 /opt/microchip/xc32/v4.35/bin/bin/../../lib/gcc/pic32mx/8.3.1/../../../../pic32mx/lib/fpu64/libpic32.a(memset.o)
                                         0x19 (size before relaxing)
 .comment       0x000000000000005b       0x19 /opt/microchip/xc32/v4.35/bin/bin/../../lib/gcc/pic32mx/8.3.1/../../../../pic32mx/lib/fpu64/libpic32.a(strlen.o)
                                         0x1a (size before relaxing)
 .comment       0x0000000000000074       0x2c /opt/microchip/xc32/v4.35/bin/bin/../../lib/gcc/pic32mx/8.3.1/../../../../pic32mx/lib/fpu64/libpic32.a(default-on-reset.o)
 .comment       0x0000000000000074       0x2c /opt/microchip/xc32/v4.35/bin/bin/../../lib/gcc/pic32mx/8.3.1/../../../../pic32mx/lib/fpu64/libpic32.a(default-on-bootstrap.o)
 .comment       0x0000000000000074       0x2c /opt/microchip/xc32/v4.35/bin/bin/../../lib/gcc/pic32mx/8.3.1/../../../../pic32mx/lib/fpu64/libpic32.a(defaultinterrupt.o)
 .comment       0x0000000000000074       0x2c /opt/microchip/xc32/v4.35/bin/bin/../../lib/gcc/pic32mx/8.3.1/../../../../pic32mx/lib/fpu64/libc-musl.a(vsnprintf.o)
 .comment       0x0000000000000074       0x2c /opt/microchip/xc32/v4.35/bin/bin/../../lib/gcc/pic32mx/8.3.1/../../../../pic32mx/lib/fpu64/libc-musl.a(sprintf.o)
 .comment       0x0000000000000074       0x2c /opt/microchip/xc32/v4.35/bin/bin/../../lib/gcc/pic32mx/8.3.1/../../../../pic32mx/lib/fpu64/libc-musl.a(vsprintf.o)
 .comment       0x0000000000000074       0x2c /opt/microchip/xc32/v4.35/bin/bin/../../lib/gcc/pic32mx/8.3.1/../../../../pic32mx/lib/fpu64/libc-musl.a(strchr.o)
 .comment       0x0000000000000074       0x2c /opt/microchip/xc32/v4.35/bin/bin/../../lib/gcc/pic32mx/8.3.1/../../../../pic32mx/lib/fpu64/libc-musl.a(strchrnul.o)
 .comment       0x0000000000000074       0x2c /opt/microchip/xc32/v4.35/bin/bin/../../lib/gcc/pic32mx/8.3.1/../../../../pic32mx/lib/fpu64/libc-musl.a(strnlen.o)
 .comment       0x0000000000000074       0x2c /opt/microchip/xc32/v4.35/bin/bin/../../lib/gcc/pic32mx/8.3.1/../../../../pic32mx/lib/fpu64/libc-musl.a(gmtime.o)
 .comment       0x0000000000000074       0x2c /opt/microchip/xc32/v4.35/bin/bin/../../lib/gcc/pic32mx/8.3.1/../../../../pic32mx/lib/fpu64/libc-musl.a(gmtime_r.o)
 .comment       0x0000000000000074       0x2c /opt/microchip/xc32/v4.35/bin/bin/../../lib/gcc/pic32mx/8.3.1/../../../../pic32mx/lib/fpu64/libc-musl.a(mktime.o)
 .comment       0x0000000000000074       0x2c /opt/microchip/xc32/v4.35/bin/bin/../../lib/gcc/pic32mx/8.3.1/../../../../pic32mx/lib/fpu64/libc-musl.a(vfprintf.o)
 .comment       0x0000000000000074       0x2c /opt/microchip/xc32/v4.35/bin/bin/../../lib/gcc/pic32mx/8.3.1/../../../../pic32mx/lib/fpu64/libc-musl.a(memchr.o)
 .comment       0x0000000000000074       0x2c /opt/microchip/xc32/v4.35/bin/bin/../../lib/gcc/pic32mx/8.3.1/../../../../pic32mx/lib/fpu64/libc-musl.a(__tm_to_secs.o)
 .comment       0x0000000000000074       0x2c /opt/microchip/xc32/v4.35/bin/bin/../../lib/gcc/pic32mx/8.3.1/../../../../pic32mx/lib/fpu64/libc-musl.a(__year_to_secs.o)
 .comment       0x0000000000000074       0x2c /opt/microchip/xc32/v4.35/bin/bin/../../lib/gcc/pic32mx/8.3.1/../../../../pic32mx/lib/fpu64/libc-musl.a(__secs_to_tm.o)
 .comment       0x0000000000000074       0x2c /opt/microchip/xc32/v4.35/bin/bin/../../lib/gcc/pic32mx/8.3.1/../../../../pic32mx/lib/fpu64/libc-musl.a(__io_fmt_needed.o)
 .comment       0x0000000000000074       0x2c /opt/microchip/xc32/v4.35/bin/bin/../../lib/gcc/pic32mx/8.3.1/../../../../pic32mx/lib/fpu64/libc-musl.a(__pop_float.o)
 .comment       0x0000000000000074       0x2c /opt/microchip/xc32/v4.35/bin/bin/../../lib/gcc/pic32mx/8.3.1/../../../../pic32mx/lib/fpu64/libc-musl.a(__pop_int.o)
 .comment       0x0000000000000074       0x2c /opt/microchip/xc32/v4.35/bin/bin/../../lib/gcc/pic32mx/8.3.1/../../../../pic32mx/lib/fpu64/libc-musl.a(__pop_ptr.o)
 .comment       0x0000000000000074       0x2c /opt/microchip/xc32/v4.35/bin/bin/../../lib/gcc/pic32mx/8.3.1/../../../../pic32mx/lib/fpu64/libc-musl.a(__printf_core.o)
 .comment       0x0000000000000074       0x2c /opt/microchip/xc32/v4.35/bin/bin/../../lib/gcc/pic32mx/8.3.1/../../../../pic32mx/lib/fpu64/libc-musl.a(atoi.o)
 .comment       0x0000000000000074       0x2c /opt/microchip/xc32/v4.35/bin/bin/../../lib/gcc/pic32mx/8.3.1/../../../../pic32mx/lib/fpu64/libc-musl.a(__month_to_secs.o)
 .comment       0x0000000000000074       0x2c /opt/microchip/xc32/v4.35/bin/bin/../../lib/gcc/pic32mx/8.3.1/../../../../pic32mx/lib/fpu64/libc-musl.a(tolower.o)
 .comment       0x0000000000000074       0x2c /opt/microchip/xc32/v4.35/bin/bin/../../lib/gcc/pic32mx/8.3.1/../../../../pic32mx/lib/fpu64/libc-musl.a(__fmt_a.o)
 .comment       0x0000000000000074       0x2c /opt/microchip/xc32/v4.35/bin/bin/../../lib/gcc/pic32mx/8.3.1/../../../../pic32mx/lib/fpu64/libc-musl.a(__fmt_d.o)
 .comment       0x0000000000000074       0x2c /opt/microchip/xc32/v4.35/bin/bin/../../lib/gcc/pic32mx/8.3.1/../../../../pic32mx/lib/fpu64/libc-musl.a(__fmt_fp.o)
 .comment       0x0000000000000074       0x2c /opt/microchip/xc32/v4.35/bin/bin/../../lib/gcc/pic32mx/8.3.1/../../../../pic32mx/lib/fpu64/libc-musl.a(__fmt_o.o)
 .comment       0x0000000000000074       0x2c /opt/microchip/xc32/v4.35/bin/bin/../../lib/gcc/pic32mx/8.3.1/../../../../pic32mx/lib/fpu64/libc-musl.a(__fmt_s.o)
 .comment       0x0000000000000074       0x2c /opt/microchip/xc32/v4.35/bin/bin/../../lib/gcc/pic32mx/8.3.1/../../../../pic32mx/lib/fpu64/libc-musl.a(__fmt_u.o)
 .comment       0x0000000000000074       0x2c /opt/microchip/xc32/v4.35/bin/bin/../../lib/gcc/pic32mx/8.3.1/../../../../pic32mx/lib/fpu64/libc-musl.a(__fmt_x.o)
 .comment       0x0000000000000074       0x2c /opt/microchip/xc32/v4.35/bin/bin/../../lib/gcc/pic32mx/8.3.1/../../../../pic32mx/lib/fpu64/libc-musl.a(strcpy.o)
 .comment       0x0000000000000074       0x2c /opt/microchip/xc32/v4.35/bin/bin/../../lib/gcc/pic32mx/8.3.1/../../../../pic32mx/lib/fpu64/libc-musl.a(toupper.o)
 .comment       0x0000000000000074       0x2c /opt/microchip/xc32/v4.35/bin/bin/../../lib/gcc/pic32mx/8.3.1/../../../../pic32mx/lib/fpu64/libc-musl.a(__cvt_u.o)
 .comment       0x0000000000000074       0x2c /opt/microchip/xc32/v4.35/bin/bin/../../lib/gcc/pic32mx/8.3.1/../../../../pic32mx/lib/fpu64/libc-musl.a(stpcpy.o)
 .comment       0x0000000000000074       0x2c /opt/microchip/xc32/v4.35/bin/bin/../../lib/gcc/pic32mx/8.3.1/../../../../pic32mx/lib/fpu64/libm-musl.a(floor.o)
 .comment       0x0000000000000074       0x2c /opt/microchip/xc32/v4.35/bin/bin/../../lib/gcc/pic32mx/8.3.1/../../../../pic32mx/lib/fpu64/libm-musl.a(fma.o)
 .comment       0x0000000000000074       0x2c /opt/microchip/xc32/v4.35/bin/bin/../../lib/gcc/pic32mx/8.3.1/../../../../pic32mx/lib/fpu64/libm-musl.a(scalbn.o)
 .comment       0x0000000000000074       0x2c /opt/microchip/xc32/v4.35/bin/bin/../../lib/gcc/pic32mx/8.3.1/fpu64/libgcc.a(_lshrdi3.o)
 .comment       0x0000000000000074       0x2c /opt/microchip/xc32/v4.35/bin/bin/../../lib/gcc/pic32mx/8.3.1/fpu64/libgcc.a(_ashldi3.o)
 .comment       0x0000000000000074       0x2c /opt/microchip/xc32/v4.35/bin/bin/../../lib/gcc/pic32mx/8.3.1/fpu64/libgcc.a(_divdi3.o)
 .comment       0x0000000000000074       0x2c /opt/microchip/xc32/v4.35/bin/bin/../../lib/gcc/pic32mx/8.3.1/fpu64/libgcc.a(_moddi3.o)
 .comment       0x0000000000000074       0x2c /opt/microchip/xc32/v4.35/bin/bin/../../lib/gcc/pic32mx/8.3.1/fpu64/libgcc.a(_umoddi3.o)
 .comment       0x0000000000000074       0x2c /opt/microchip/xc32/v4.35/bin/bin/../../lib/gcc/pic32mx/8.3.1/../../../../pic32mx/lib/fpu64/libpic32.a(errno.o)

.debug
 *.elf(.debug)
 *(.debug)

.line
 *.elf(.line)
 *(.line)

.debug_srcinfo
 *.elf(.debug_srcinfo)
 *(.debug_srcinfo)

.debug_sfnames
 *.elf(.debug_sfnames)
 *(.debug_sfnames)

.debug_aranges  0x0000000000000000     0x1168
 *.elf(.debug_aranges)
 *(.debug_aranges)
 .debug_aranges
                0x0000000000000000       0x20 build/default/production/_ext/1529399856/osal_freertos.o
 .debug_aranges
                0x0000000000000020       0x20 build/default/production/_ext/60165520/plib_clk.o
 .debug_aranges
                0x0000000000000040       0x20 build/default/production/_ext/1249264884/plib_coretimer.o
 .debug_aranges
                0x0000000000000060       0x20 build/default/production/_ext/1865200349/plib_evic.o
 .debug_aranges
                0x0000000000000080       0x20 build/default/production/_ext/1865254177/plib_gpio.o
 .debug_aranges
                0x00000000000000a0       0x20 build/default/production/_ext/60181895/plib_tmr9.o
 .debug_aranges
                0x00000000000000c0       0x20 build/default/production/_ext/60181895/plib_tmr8.o
 .debug_aranges
                0x00000000000000e0       0x20 build/default/production/_ext/1865657120/plib_uart2.o
 .debug_aranges
                0x0000000000000100       0x20 build/default/production/_ext/163028504/xc32_monitor.o
 .debug_aranges
                0x0000000000000120       0x20 build/default/production/_ext/1832805299/sys_console_uart.o
 .debug_aranges
                0x0000000000000140       0x20 build/default/production/_ext/1832805299/sys_console.o
 .debug_aranges
                0x0000000000000160       0x20 build/default/production/_ext/944882569/sys_debug.o
 .debug_aranges
                0x0000000000000180       0x20 build/default/production/_ext/14461671/sys_dma.o
 .debug_aranges
                0x00000000000001a0       0x20 build/default/production/_ext/1881668453/sys_int.o
 .debug_aranges
                0x00000000000001c0       0x20 build/default/production/_ext/101884895/sys_time.o
 .debug_aranges
                0x00000000000001e0       0x20 build/default/production/_ext/1171490990/freertos_hooks.o
 .debug_aranges
                0x0000000000000200       0x20 build/default/production/_ext/1171490990/interrupts.o
 .debug_aranges
                0x0000000000000220       0x20 build/default/production/_ext/1171490990/tasks.o
 .debug_aranges
                0x0000000000000240       0x20 build/default/production/_ext/1171490990/initialization.o
 .debug_aranges
                0x0000000000000260       0x70 build/default/production/_ext/1171490990/interrupts_a.o
 .debug_aranges
                0x00000000000002d0       0x20 build/default/production/_ext/1171490990/exceptions.o
 .debug_aranges
                0x00000000000002f0       0x20 build/default/production/_ext/1665200909/heap_1.o
 .debug_aranges
                0x0000000000000310       0x30 build/default/production/_ext/951553246/port_asm.o
 .debug_aranges
                0x0000000000000340       0x20 build/default/production/_ext/951553246/port.o
 .debug_aranges
                0x0000000000000360       0x18 build/default/production/_ext/404212886/croutine.o
 .debug_aranges
                0x0000000000000378       0x20 build/default/production/_ext/404212886/queue.o
 .debug_aranges
                0x0000000000000398       0x18 build/default/production/_ext/404212886/timers.o
 .debug_aranges
                0x00000000000003b0       0x20 build/default/production/_ext/404212886/stream_buffer.o
 .debug_aranges
                0x00000000000003d0       0x20 build/default/production/_ext/404212886/event_groups.o
 .debug_aranges
                0x00000000000003f0       0x20 build/default/production/_ext/404212886/FreeRTOS_tasks.o
 .debug_aranges
                0x0000000000000410       0x20 build/default/production/_ext/404212886/list.o
 .debug_aranges
                0x0000000000000430       0x20 build/default/production/_ext/1360937237/app.o
 .debug_aranges
                0x0000000000000450       0x20 build/default/production/_ext/1360937237/main.o
 .debug_aranges
                0x0000000000000470       0x20 build/default/production/_ext/1954180691/wdrv_winc.o
 .debug_aranges
                0x0000000000000490       0x20 build/default/production/_ext/1865161661/plib_dmac.o
 .debug_aranges
                0x00000000000004b0       0x20 build/default/production/_ext/1954180691/wdrv_winc_nvm.o
 .debug_aranges
                0x00000000000004d0       0x20 build/default/production/_ext/651226651/event.o
 .debug_aranges
                0x00000000000004f0       0x20 build/default/production/_ext/1954180691/wdrv_winc_bssctx.o
 .debug_aranges
                0x0000000000000510       0x20 build/default/production/_ext/651226651/gatt_client.o
 .debug_aranges
                0x0000000000000530       0x20 build/default/production/_ext/298189674/plib_spi1_master.o
 .debug_aranges
                0x0000000000000550       0x20 build/default/production/_ext/1954180691/wdrv_winc_powersave.o
 .debug_aranges
                0x0000000000000570       0x20 build/default/production/_ext/1954180691/wdrv_winc_systime.o
 .debug_aranges
                0x0000000000000590       0x20 build/default/production/_ext/651226651/gattc_task.o
 .debug_aranges
                0x00000000000005b0       0x20 build/default/production/_ext/1667573777/m2m_hif.o
 .debug_aranges
                0x00000000000005d0       0x20 build/default/production/_ext/1667573777/m2m_periph.o
 .debug_aranges
                0x00000000000005f0       0x20 build/default/production/_ext/1068697685/wdrv_winc_eint.o
 .debug_aranges
                0x0000000000000610       0x20 build/default/production/_ext/651226651/interface.o
 .debug_aranges
                0x0000000000000630       0x20 build/default/production/_ext/651226651/gapc_task.o
 .debug_aranges
                0x0000000000000650       0x20 build/default/production/_ext/651226651/error.o
 .debug_aranges
                0x0000000000000670       0x20 build/default/production/_ext/1954180691/wdrv_winc_sta.o
 .debug_aranges
                0x0000000000000690       0x20 build/default/production/_ext/651226651/wifiprov_task.o
 .debug_aranges
                0x00000000000006b0       0x20 build/default/production/_ext/1908349716/spi_flash.o
 .debug_aranges
                0x00000000000006d0       0x20 build/default/production/_ext/2094051164/socket.o
 .debug_aranges
                0x00000000000006f0       0x20 build/default/production/_ext/1697030576/wdrv_winc_spi.o
 .debug_aranges
                0x0000000000000710       0x20 build/default/production/_ext/1667573777/m2m_wifi.o
 .debug_aranges
                0x0000000000000730       0x20 build/default/production/_ext/1667573777/nmbus.o
 .debug_aranges
                0x0000000000000750       0x20 build/default/production/_ext/1954180691/wdrv_winc_wps.o
 .debug_aranges
                0x0000000000000770       0x20 build/default/production/_ext/651226651/gatt_server.o
 .debug_aranges
                0x0000000000000790       0x20 build/default/production/_ext/1954180691/wdrv_winc_httpprovctx.o
 .debug_aranges
                0x00000000000007b0       0x20 build/default/production/_ext/1954180691/wdrv_winc_softap.o
 .debug_aranges
                0x00000000000007d0       0x20 build/default/production/_ext/1667573777/nmspi.o
 .debug_aranges
                0x00000000000007f0       0x20 build/default/production/_ext/1954180691/wdrv_winc_ble.o
 .debug_aranges
                0x0000000000000810       0x20 build/default/production/_ext/1667573777/nmdrv.o
 .debug_aranges
                0x0000000000000830       0x20 build/default/production/_ext/2094051164/inet_addr.o
 .debug_aranges
                0x0000000000000850       0x20 build/default/production/_ext/1667573777/m2m_ota.o
 .debug_aranges
                0x0000000000000870       0x20 build/default/production/_ext/2018374705/wdrv_winc_osal.o
 .debug_aranges
                0x0000000000000890       0x20 build/default/production/_ext/1954180691/wdrv_winc_authctx.o
 .debug_aranges
                0x00000000000008b0       0x20 build/default/production/_ext/1306418660/platform.o
 .debug_aranges
                0x00000000000008d0       0x20 build/default/production/_ext/1954180691/wdrv_winc_bssfind.o
 .debug_aranges
                0x00000000000008f0       0x20 build/default/production/_ext/651226651/gattm_task.o
 .debug_aranges
                0x0000000000000910       0x20 build/default/production/_ext/1954180691/wdrv_winc_custie.o
 .debug_aranges
                0x0000000000000930       0x20 build/default/production/_ext/1954180691/wdrv_winc_enterprise.o
 .debug_aranges
                0x0000000000000950       0x20 build/default/production/_ext/651226651/htpt.o
 .debug_aranges
                0x0000000000000970       0x20 build/default/production/_ext/2094051164/inet_ntop.o
 .debug_aranges
                0x0000000000000990       0x20 build/default/production/_ext/1636284884/nm_common.o
 .debug_aranges
                0x00000000000009b0       0x20 build/default/production/_ext/1667573777/m2m_flash.o
 .debug_aranges
                0x00000000000009d0       0x20 build/default/production/_ext/651226651/gapm_task.o
 .debug_aranges
                0x00000000000009f0       0x20 build/default/production/_ext/1954180691/wdrv_winc_ssl.o
 .debug_aranges
                0x0000000000000a10       0x20 build/default/production/_ext/651226651/dbg_task.o
 .debug_aranges
                0x0000000000000a30       0x20 build/default/production/_ext/2070931557/drv_spi.o
 .debug_aranges
                0x0000000000000a50       0x20 build/default/production/_ext/1954180691/wdrv_winc_socket.o
 .debug_aranges
                0x0000000000000a70       0x20 build/default/production/_ext/651226651/gap.o
 .debug_aranges
                0x0000000000000a90       0x20 build/default/production/_ext/1667573777/m2m_ssl.o
 .debug_aranges
                0x0000000000000ab0       0x20 build/default/production/_ext/1068697685/wdrv_winc_gpio.o
 .debug_aranges
                0x0000000000000ad0       0x20 build/default/production/_ext/651226651/security.o
 .debug_aranges
                0x0000000000000af0       0x20 build/default/production/_ext/1954180691/wdrv_winc_assoc.o
 .debug_aranges
                0x0000000000000b10       0x20 build/default/production/_ext/651226651/htpt_task.o
 .debug_aranges
                0x0000000000000b30       0x20 build/default/production/_ext/1667573777/nmasic.o
 .debug_aranges
                0x0000000000000b50       0x20 build/default/production/example.o
 .debug_aranges
                0x0000000000000b70       0x20 /opt/microchip/xc32/v4.35/bin/bin/../../lib/gcc/pic32mx/8.3.1/fpu64/libgcc.a(_udivdi3.o)
 .debug_aranges
                0x0000000000000b90       0x20 /opt/microchip/xc32/v4.35/bin/bin/../../lib/gcc/pic32mx/8.3.1/../../../../pic32mx/lib/fpu64/libpic32.a(default-on-reset.o)
 .debug_aranges
                0x0000000000000bb0       0x20 /opt/microchip/xc32/v4.35/bin/bin/../../lib/gcc/pic32mx/8.3.1/../../../../pic32mx/lib/fpu64/libpic32.a(default-on-bootstrap.o)
 .debug_aranges
                0x0000000000000bd0       0x20 /opt/microchip/xc32/v4.35/bin/bin/../../lib/gcc/pic32mx/8.3.1/../../../../pic32mx/lib/fpu64/libpic32.a(defaultinterrupt.o)
 .debug_aranges
                0x0000000000000bf0       0x20 /opt/microchip/xc32/v4.35/bin/bin/../../lib/gcc/pic32mx/8.3.1/../../../../pic32mx/lib/fpu64/libc-musl.a(vsnprintf.o)
 .debug_aranges
                0x0000000000000c10       0x20 /opt/microchip/xc32/v4.35/bin/bin/../../lib/gcc/pic32mx/8.3.1/../../../../pic32mx/lib/fpu64/libc-musl.a(sprintf.o)
 .debug_aranges
                0x0000000000000c30       0x20 /opt/microchip/xc32/v4.35/bin/bin/../../lib/gcc/pic32mx/8.3.1/../../../../pic32mx/lib/fpu64/libc-musl.a(vsprintf.o)
 .debug_aranges
                0x0000000000000c50       0x20 /opt/microchip/xc32/v4.35/bin/bin/../../lib/gcc/pic32mx/8.3.1/../../../../pic32mx/lib/fpu64/libc-musl.a(strchr.o)
 .debug_aranges
                0x0000000000000c70       0x20 /opt/microchip/xc32/v4.35/bin/bin/../../lib/gcc/pic32mx/8.3.1/../../../../pic32mx/lib/fpu64/libc-musl.a(strchrnul.o)
 .debug_aranges
                0x0000000000000c90       0x20 /opt/microchip/xc32/v4.35/bin/bin/../../lib/gcc/pic32mx/8.3.1/../../../../pic32mx/lib/fpu64/libc-musl.a(strnlen.o)
 .debug_aranges
                0x0000000000000cb0       0x20 /opt/microchip/xc32/v4.35/bin/bin/../../lib/gcc/pic32mx/8.3.1/../../../../pic32mx/lib/fpu64/libc-musl.a(gmtime.o)
 .debug_aranges
                0x0000000000000cd0       0x20 /opt/microchip/xc32/v4.35/bin/bin/../../lib/gcc/pic32mx/8.3.1/../../../../pic32mx/lib/fpu64/libc-musl.a(gmtime_r.o)
 .debug_aranges
                0x0000000000000cf0       0x20 /opt/microchip/xc32/v4.35/bin/bin/../../lib/gcc/pic32mx/8.3.1/../../../../pic32mx/lib/fpu64/libc-musl.a(mktime.o)
 .debug_aranges
                0x0000000000000d10       0x28 /opt/microchip/xc32/v4.35/bin/bin/../../lib/gcc/pic32mx/8.3.1/../../../../pic32mx/lib/fpu64/libc-musl.a(vfprintf.o)
 .debug_aranges
                0x0000000000000d38       0x20 /opt/microchip/xc32/v4.35/bin/bin/../../lib/gcc/pic32mx/8.3.1/../../../../pic32mx/lib/fpu64/libc-musl.a(memchr.o)
 .debug_aranges
                0x0000000000000d58       0x20 /opt/microchip/xc32/v4.35/bin/bin/../../lib/gcc/pic32mx/8.3.1/../../../../pic32mx/lib/fpu64/libc-musl.a(__tm_to_secs.o)
 .debug_aranges
                0x0000000000000d78       0x20 /opt/microchip/xc32/v4.35/bin/bin/../../lib/gcc/pic32mx/8.3.1/../../../../pic32mx/lib/fpu64/libc-musl.a(__year_to_secs.o)
 .debug_aranges
                0x0000000000000d98       0x20 /opt/microchip/xc32/v4.35/bin/bin/../../lib/gcc/pic32mx/8.3.1/../../../../pic32mx/lib/fpu64/libc-musl.a(__secs_to_tm.o)
 .debug_aranges
                0x0000000000000db8       0x20 /opt/microchip/xc32/v4.35/bin/bin/../../lib/gcc/pic32mx/8.3.1/../../../../pic32mx/lib/fpu64/libc-musl.a(__io_fmt_needed.o)
 .debug_aranges
                0x0000000000000dd8       0x20 /opt/microchip/xc32/v4.35/bin/bin/../../lib/gcc/pic32mx/8.3.1/../../../../pic32mx/lib/fpu64/libc-musl.a(__pop_float.o)
 .debug_aranges
                0x0000000000000df8       0x20 /opt/microchip/xc32/v4.35/bin/bin/../../lib/gcc/pic32mx/8.3.1/../../../../pic32mx/lib/fpu64/libc-musl.a(__pop_int.o)
 .debug_aranges
                0x0000000000000e18       0x20 /opt/microchip/xc32/v4.35/bin/bin/../../lib/gcc/pic32mx/8.3.1/../../../../pic32mx/lib/fpu64/libc-musl.a(__pop_ptr.o)
 .debug_aranges
                0x0000000000000e38       0x50 /opt/microchip/xc32/v4.35/bin/bin/../../lib/gcc/pic32mx/8.3.1/../../../../pic32mx/lib/fpu64/libc-musl.a(__printf_core.o)
 .debug_aranges
                0x0000000000000e88       0x20 /opt/microchip/xc32/v4.35/bin/bin/../../lib/gcc/pic32mx/8.3.1/../../../../pic32mx/lib/fpu64/libc-musl.a(atoi.o)
 .debug_aranges
                0x0000000000000ea8       0x20 /opt/microchip/xc32/v4.35/bin/bin/../../lib/gcc/pic32mx/8.3.1/../../../../pic32mx/lib/fpu64/libc-musl.a(__month_to_secs.o)
 .debug_aranges
                0x0000000000000ec8       0x28 /opt/microchip/xc32/v4.35/bin/bin/../../lib/gcc/pic32mx/8.3.1/../../../../pic32mx/lib/fpu64/libc-musl.a(tolower.o)
 .debug_aranges
                0x0000000000000ef0       0x20 /opt/microchip/xc32/v4.35/bin/bin/../../lib/gcc/pic32mx/8.3.1/../../../../pic32mx/lib/fpu64/libc-musl.a(__fmt_a.o)
 .debug_aranges
                0x0000000000000f10       0x20 /opt/microchip/xc32/v4.35/bin/bin/../../lib/gcc/pic32mx/8.3.1/../../../../pic32mx/lib/fpu64/libc-musl.a(__fmt_d.o)
 .debug_aranges
                0x0000000000000f30       0x20 /opt/microchip/xc32/v4.35/bin/bin/../../lib/gcc/pic32mx/8.3.1/../../../../pic32mx/lib/fpu64/libc-musl.a(__fmt_fp.o)
 .debug_aranges
                0x0000000000000f50       0x20 /opt/microchip/xc32/v4.35/bin/bin/../../lib/gcc/pic32mx/8.3.1/../../../../pic32mx/lib/fpu64/libc-musl.a(__fmt_o.o)
 .debug_aranges
                0x0000000000000f70       0x20 /opt/microchip/xc32/v4.35/bin/bin/../../lib/gcc/pic32mx/8.3.1/../../../../pic32mx/lib/fpu64/libc-musl.a(__fmt_s.o)
 .debug_aranges
                0x0000000000000f90       0x20 /opt/microchip/xc32/v4.35/bin/bin/../../lib/gcc/pic32mx/8.3.1/../../../../pic32mx/lib/fpu64/libc-musl.a(__fmt_u.o)
 .debug_aranges
                0x0000000000000fb0       0x20 /opt/microchip/xc32/v4.35/bin/bin/../../lib/gcc/pic32mx/8.3.1/../../../../pic32mx/lib/fpu64/libc-musl.a(__fmt_x.o)
 .debug_aranges
                0x0000000000000fd0       0x20 /opt/microchip/xc32/v4.35/bin/bin/../../lib/gcc/pic32mx/8.3.1/../../../../pic32mx/lib/fpu64/libc-musl.a(strcpy.o)
 .debug_aranges
                0x0000000000000ff0       0x28 /opt/microchip/xc32/v4.35/bin/bin/../../lib/gcc/pic32mx/8.3.1/../../../../pic32mx/lib/fpu64/libc-musl.a(toupper.o)
 .debug_aranges
                0x0000000000001018       0x20 /opt/microchip/xc32/v4.35/bin/bin/../../lib/gcc/pic32mx/8.3.1/../../../../pic32mx/lib/fpu64/libc-musl.a(__cvt_u.o)
 .debug_aranges
                0x0000000000001038       0x20 /opt/microchip/xc32/v4.35/bin/bin/../../lib/gcc/pic32mx/8.3.1/../../../../pic32mx/lib/fpu64/libc-musl.a(stpcpy.o)
 .debug_aranges
                0x0000000000001058       0x20 /opt/microchip/xc32/v4.35/bin/bin/../../lib/gcc/pic32mx/8.3.1/../../../../pic32mx/lib/fpu64/libm-musl.a(floor.o)
 .debug_aranges
                0x0000000000001078       0x30 /opt/microchip/xc32/v4.35/bin/bin/../../lib/gcc/pic32mx/8.3.1/../../../../pic32mx/lib/fpu64/libm-musl.a(fma.o)
 .debug_aranges
                0x00000000000010a8       0x20 /opt/microchip/xc32/v4.35/bin/bin/../../lib/gcc/pic32mx/8.3.1/../../../../pic32mx/lib/fpu64/libm-musl.a(scalbn.o)
 .debug_aranges
                0x00000000000010c8       0x20 /opt/microchip/xc32/v4.35/bin/bin/../../lib/gcc/pic32mx/8.3.1/fpu64/libgcc.a(_lshrdi3.o)
 .debug_aranges
                0x00000000000010e8       0x20 /opt/microchip/xc32/v4.35/bin/bin/../../lib/gcc/pic32mx/8.3.1/fpu64/libgcc.a(_ashldi3.o)
 .debug_aranges
                0x0000000000001108       0x20 /opt/microchip/xc32/v4.35/bin/bin/../../lib/gcc/pic32mx/8.3.1/fpu64/libgcc.a(_divdi3.o)
 .debug_aranges
                0x0000000000001128       0x20 /opt/microchip/xc32/v4.35/bin/bin/../../lib/gcc/pic32mx/8.3.1/fpu64/libgcc.a(_moddi3.o)
 .debug_aranges
                0x0000000000001148       0x20 /opt/microchip/xc32/v4.35/bin/bin/../../lib/gcc/pic32mx/8.3.1/fpu64/libgcc.a(_umoddi3.o)

.debug_pubnames
 *.elf(.debug_pubnames)
 *(.debug_pubnames)

.debug_info     0x0000000000000000    0x40243
 *.elf(.debug_info .gnu.linkonce.wi.*)
 *(.debug_info .gnu.linkonce.wi.*)
 .debug_info    0x0000000000000000      0x51c build/default/production/_ext/1529399856/osal_freertos.o
 .debug_info    0x000000000000051c      0x25f build/default/production/_ext/60165520/plib_clk.o
 .debug_info    0x000000000000077b      0x5aa build/default/production/_ext/1249264884/plib_coretimer.o
 .debug_info    0x0000000000000d25      0x357 build/default/production/_ext/1865200349/plib_evic.o
 .debug_info    0x000000000000107c      0x8e0 build/default/production/_ext/1865254177/plib_gpio.o
 .debug_info    0x000000000000195c      0x59b build/default/production/_ext/60181895/plib_tmr9.o
 .debug_info    0x0000000000001ef7      0x59b build/default/production/_ext/60181895/plib_tmr8.o
 .debug_info    0x0000000000002492      0xb4f build/default/production/_ext/1865657120/plib_uart2.o
 .debug_info    0x0000000000002fe1       0xe9 build/default/production/_ext/163028504/xc32_monitor.o
 .debug_info    0x00000000000030ca      0x926 build/default/production/_ext/1832805299/sys_console_uart.o
 .debug_info    0x00000000000039f0      0xa04 build/default/production/_ext/1832805299/sys_console.o
 .debug_info    0x00000000000043f4      0x349 build/default/production/_ext/944882569/sys_debug.o
 .debug_info    0x000000000000473d      0x2cf build/default/production/_ext/14461671/sys_dma.o
 .debug_info    0x0000000000004a0c      0x17c build/default/production/_ext/1881668453/sys_int.o
 .debug_info    0x0000000000004b88     0x12a1 build/default/production/_ext/101884895/sys_time.o
 .debug_info    0x0000000000005e29      0x1b0 build/default/production/_ext/1171490990/freertos_hooks.o
 .debug_info    0x0000000000005fd9      0x16f build/default/production/_ext/1171490990/interrupts.o
 .debug_info    0x0000000000006148      0x268 build/default/production/_ext/1171490990/tasks.o
 .debug_info    0x00000000000063b0     0x13da build/default/production/_ext/1171490990/initialization.o
 .debug_info    0x000000000000778a       0x22 build/default/production/_ext/1171490990/interrupts_a.o
 .debug_info    0x00000000000077ac      0x144 build/default/production/_ext/1171490990/exceptions.o
 .debug_info    0x00000000000078f0      0x183 build/default/production/_ext/1665200909/heap_1.o
 .debug_info    0x0000000000007a73       0x22 build/default/production/_ext/951553246/port_asm.o
 .debug_info    0x0000000000007a95      0xb28 build/default/production/_ext/951553246/port.o
 .debug_info    0x00000000000085bd       0x79 build/default/production/_ext/404212886/croutine.o
 .debug_info    0x0000000000008636     0x1019 build/default/production/_ext/404212886/queue.o
 .debug_info    0x000000000000964f       0x79 build/default/production/_ext/404212886/timers.o
 .debug_info    0x00000000000096c8      0xc58 build/default/production/_ext/404212886/stream_buffer.o
 .debug_info    0x000000000000a320      0x6ef build/default/production/_ext/404212886/event_groups.o
 .debug_info    0x000000000000aa0f     0x1b4d build/default/production/_ext/404212886/FreeRTOS_tasks.o
 .debug_info    0x000000000000c55c      0x2e7 build/default/production/_ext/404212886/list.o
 .debug_info    0x000000000000c843      0x3a6 build/default/production/_ext/1360937237/app.o
 .debug_info    0x000000000000cbe9      0x144 build/default/production/_ext/1360937237/main.o
 .debug_info    0x000000000000cd2d     0x2b03 build/default/production/_ext/1954180691/wdrv_winc.o
 .debug_info    0x000000000000f830      0xd0e build/default/production/_ext/1865161661/plib_dmac.o
 .debug_info    0x000000000001053e     0x1584 build/default/production/_ext/1954180691/wdrv_winc_nvm.o
 .debug_info    0x0000000000011ac2     0x17d0 build/default/production/_ext/651226651/event.o
 .debug_info    0x0000000000013292      0x433 build/default/production/_ext/1954180691/wdrv_winc_bssctx.o
 .debug_info    0x00000000000136c5      0x7ed build/default/production/_ext/651226651/gatt_client.o
 .debug_info    0x0000000000013eb2      0x61c build/default/production/_ext/298189674/plib_spi1_master.o
 .debug_info    0x00000000000144ce     0x105e build/default/production/_ext/1954180691/wdrv_winc_powersave.o
 .debug_info    0x000000000001552c     0x12b9 build/default/production/_ext/1954180691/wdrv_winc_systime.o
 .debug_info    0x00000000000167e5     0x133e build/default/production/_ext/651226651/gattc_task.o
 .debug_info    0x0000000000017b23      0xbfd build/default/production/_ext/1667573777/m2m_hif.o
 .debug_info    0x0000000000018720      0x2da build/default/production/_ext/1667573777/m2m_periph.o
 .debug_info    0x00000000000189fa      0x175 build/default/production/_ext/1068697685/wdrv_winc_eint.o
 .debug_info    0x0000000000018b6f      0x228 build/default/production/_ext/651226651/interface.o
 .debug_info    0x0000000000018d97     0x1c44 build/default/production/_ext/651226651/gapc_task.o
 .debug_info    0x000000000001a9db      0x226 build/default/production/_ext/651226651/error.o
 .debug_info    0x000000000001ac01     0x14fd build/default/production/_ext/1954180691/wdrv_winc_sta.o
 .debug_info    0x000000000001c0fe      0x7e7 build/default/production/_ext/651226651/wifiprov_task.o
 .debug_info    0x000000000001c8e5      0x6ac build/default/production/_ext/1908349716/spi_flash.o
 .debug_info    0x000000000001cf91     0x1b2a build/default/production/_ext/2094051164/socket.o
 .debug_info    0x000000000001eabb      0x82d build/default/production/_ext/1697030576/wdrv_winc_spi.o
 .debug_info    0x000000000001f2e8     0x3710 build/default/production/_ext/1667573777/m2m_wifi.o
 .debug_info    0x00000000000229f8      0x45a build/default/production/_ext/1667573777/nmbus.o
 .debug_info    0x0000000000022e52     0x1069 build/default/production/_ext/1954180691/wdrv_winc_wps.o
 .debug_info    0x0000000000023ebb      0xec3 build/default/production/_ext/651226651/gatt_server.o
 .debug_info    0x0000000000024d7e      0x570 build/default/production/_ext/1954180691/wdrv_winc_httpprovctx.o
 .debug_info    0x00000000000252ee     0x12b1 build/default/production/_ext/1954180691/wdrv_winc_softap.o
 .debug_info    0x000000000002659f      0x9c4 build/default/production/_ext/1667573777/nmspi.o
 .debug_info    0x0000000000026f63     0x136b build/default/production/_ext/1954180691/wdrv_winc_ble.o
 .debug_info    0x00000000000282ce      0x53e build/default/production/_ext/1667573777/nmdrv.o
 .debug_info    0x000000000002880c      0x12f build/default/production/_ext/2094051164/inet_addr.o
 .debug_info    0x000000000002893b      0x474 build/default/production/_ext/1667573777/m2m_ota.o
 .debug_info    0x0000000000028daf       0xc5 build/default/production/_ext/2018374705/wdrv_winc_osal.o
 .debug_info    0x0000000000028e74      0x9a6 build/default/production/_ext/1954180691/wdrv_winc_authctx.o
 .debug_info    0x000000000002981a      0x3e5 build/default/production/_ext/1306418660/platform.o
 .debug_info    0x0000000000029bff     0x140c build/default/production/_ext/1954180691/wdrv_winc_bssfind.o
 .debug_info    0x000000000002b00b      0x601 build/default/production/_ext/651226651/gattm_task.o
 .debug_info    0x000000000002b60c      0x2f7 build/default/production/_ext/1954180691/wdrv_winc_custie.o
 .debug_info    0x000000000002b903     0x1288 build/default/production/_ext/1954180691/wdrv_winc_enterprise.o
 .debug_info    0x000000000002cb8b      0x521 build/default/production/_ext/651226651/htpt.o
 .debug_info    0x000000000002d0ac      0x1a0 build/default/production/_ext/2094051164/inet_ntop.o
 .debug_info    0x000000000002d24c      0x17c build/default/production/_ext/1636284884/nm_common.o
 .debug_info    0x000000000002d3c8      0x7a5 build/default/production/_ext/1667573777/m2m_flash.o
 .debug_info    0x000000000002db6d     0x14f8 build/default/production/_ext/651226651/gapm_task.o
 .debug_info    0x000000000002f065     0x160c build/default/production/_ext/1954180691/wdrv_winc_ssl.o
 .debug_info    0x0000000000030671      0x81e build/default/production/_ext/651226651/dbg_task.o
 .debug_info    0x0000000000030e8f     0x1624 build/default/production/_ext/2070931557/drv_spi.o
 .debug_info    0x00000000000324b3     0x14d7 build/default/production/_ext/1954180691/wdrv_winc_socket.o
 .debug_info    0x000000000003398a     0x1655 build/default/production/_ext/651226651/gap.o
 .debug_info    0x0000000000034fdf      0x85c build/default/production/_ext/1667573777/m2m_ssl.o
 .debug_info    0x000000000003583b      0x12a build/default/production/_ext/1068697685/wdrv_winc_gpio.o
 .debug_info    0x0000000000035965      0x881 build/default/production/_ext/651226651/security.o
 .debug_info    0x00000000000361e6     0x10e9 build/default/production/_ext/1954180691/wdrv_winc_assoc.o
 .debug_info    0x00000000000372cf      0xaa7 build/default/production/_ext/651226651/htpt_task.o
 .debug_info    0x0000000000037d76      0x87d build/default/production/_ext/1667573777/nmasic.o
 .debug_info    0x00000000000385f3      0x98d build/default/production/example.o
 .debug_info    0x0000000000038f80      0x6ca /opt/microchip/xc32/v4.35/bin/bin/../../lib/gcc/pic32mx/8.3.1/fpu64/libgcc.a(_udivdi3.o)
 .debug_info    0x000000000003964a       0x3f /opt/microchip/xc32/v4.35/bin/bin/../../lib/gcc/pic32mx/8.3.1/../../../../pic32mx/lib/fpu64/libpic32.a(default-on-reset.o)
 .debug_info    0x0000000000039689       0x3f /opt/microchip/xc32/v4.35/bin/bin/../../lib/gcc/pic32mx/8.3.1/../../../../pic32mx/lib/fpu64/libpic32.a(default-on-bootstrap.o)
 .debug_info    0x00000000000396c8       0x40 /opt/microchip/xc32/v4.35/bin/bin/../../lib/gcc/pic32mx/8.3.1/../../../../pic32mx/lib/fpu64/libpic32.a(defaultinterrupt.o)
 .debug_info    0x0000000000039708      0x41a /opt/microchip/xc32/v4.35/bin/bin/../../lib/gcc/pic32mx/8.3.1/../../../../pic32mx/lib/fpu64/libc-musl.a(vsnprintf.o)
 .debug_info    0x0000000000039b22      0x103 /opt/microchip/xc32/v4.35/bin/bin/../../lib/gcc/pic32mx/8.3.1/../../../../pic32mx/lib/fpu64/libc-musl.a(sprintf.o)
 .debug_info    0x0000000000039c25       0xfd /opt/microchip/xc32/v4.35/bin/bin/../../lib/gcc/pic32mx/8.3.1/../../../../pic32mx/lib/fpu64/libc-musl.a(vsprintf.o)
 .debug_info    0x0000000000039d22       0xd0 /opt/microchip/xc32/v4.35/bin/bin/../../lib/gcc/pic32mx/8.3.1/../../../../pic32mx/lib/fpu64/libc-musl.a(strchr.o)
 .debug_info    0x0000000000039df2      0x12a /opt/microchip/xc32/v4.35/bin/bin/../../lib/gcc/pic32mx/8.3.1/../../../../pic32mx/lib/fpu64/libc-musl.a(strchrnul.o)
 .debug_info    0x0000000000039f1c       0xd3 /opt/microchip/xc32/v4.35/bin/bin/../../lib/gcc/pic32mx/8.3.1/../../../../pic32mx/lib/fpu64/libc-musl.a(strnlen.o)
 .debug_info    0x0000000000039fef      0x197 /opt/microchip/xc32/v4.35/bin/bin/../../lib/gcc/pic32mx/8.3.1/../../../../pic32mx/lib/fpu64/libc-musl.a(gmtime.o)
 .debug_info    0x000000000003a186      0x1a4 /opt/microchip/xc32/v4.35/bin/bin/../../lib/gcc/pic32mx/8.3.1/../../../../pic32mx/lib/fpu64/libc-musl.a(gmtime_r.o)
 .debug_info    0x000000000003a32a      0x203 /opt/microchip/xc32/v4.35/bin/bin/../../lib/gcc/pic32mx/8.3.1/../../../../pic32mx/lib/fpu64/libc-musl.a(mktime.o)
 .debug_info    0x000000000003a52d      0x3ef /opt/microchip/xc32/v4.35/bin/bin/../../lib/gcc/pic32mx/8.3.1/../../../../pic32mx/lib/fpu64/libc-musl.a(vfprintf.o)
 .debug_info    0x000000000003a91c       0xe4 /opt/microchip/xc32/v4.35/bin/bin/../../lib/gcc/pic32mx/8.3.1/../../../../pic32mx/lib/fpu64/libc-musl.a(memchr.o)
 .debug_info    0x000000000003aa00      0x206 /opt/microchip/xc32/v4.35/bin/bin/../../lib/gcc/pic32mx/8.3.1/../../../../pic32mx/lib/fpu64/libc-musl.a(__tm_to_secs.o)
 .debug_info    0x000000000003ac06      0x107 /opt/microchip/xc32/v4.35/bin/bin/../../lib/gcc/pic32mx/8.3.1/../../../../pic32mx/lib/fpu64/libc-musl.a(__year_to_secs.o)
 .debug_info    0x000000000003ad0d      0x293 /opt/microchip/xc32/v4.35/bin/bin/../../lib/gcc/pic32mx/8.3.1/../../../../pic32mx/lib/fpu64/libc-musl.a(__secs_to_tm.o)
 .debug_info    0x000000000003afa0      0x17e /opt/microchip/xc32/v4.35/bin/bin/../../lib/gcc/pic32mx/8.3.1/../../../../pic32mx/lib/fpu64/libc-musl.a(__io_fmt_needed.o)
 .debug_info    0x000000000003b11e      0x134 /opt/microchip/xc32/v4.35/bin/bin/../../lib/gcc/pic32mx/8.3.1/../../../../pic32mx/lib/fpu64/libc-musl.a(__pop_float.o)
 .debug_info    0x000000000003b252      0x14e /opt/microchip/xc32/v4.35/bin/bin/../../lib/gcc/pic32mx/8.3.1/../../../../pic32mx/lib/fpu64/libc-musl.a(__pop_int.o)
 .debug_info    0x000000000003b3a0      0x15e /opt/microchip/xc32/v4.35/bin/bin/../../lib/gcc/pic32mx/8.3.1/../../../../pic32mx/lib/fpu64/libc-musl.a(__pop_ptr.o)
 .debug_info    0x000000000003b4fe      0xa27 /opt/microchip/xc32/v4.35/bin/bin/../../lib/gcc/pic32mx/8.3.1/../../../../pic32mx/lib/fpu64/libc-musl.a(__printf_core.o)
 .debug_info    0x000000000003bf25       0xee /opt/microchip/xc32/v4.35/bin/bin/../../lib/gcc/pic32mx/8.3.1/../../../../pic32mx/lib/fpu64/libc-musl.a(atoi.o)
 .debug_info    0x000000000003c013       0xbd /opt/microchip/xc32/v4.35/bin/bin/../../lib/gcc/pic32mx/8.3.1/../../../../pic32mx/lib/fpu64/libc-musl.a(__month_to_secs.o)
 .debug_info    0x000000000003c0d0      0x11b /opt/microchip/xc32/v4.35/bin/bin/../../lib/gcc/pic32mx/8.3.1/../../../../pic32mx/lib/fpu64/libc-musl.a(tolower.o)
 .debug_info    0x000000000003c1eb      0x604 /opt/microchip/xc32/v4.35/bin/bin/../../lib/gcc/pic32mx/8.3.1/../../../../pic32mx/lib/fpu64/libc-musl.a(__fmt_a.o)
 .debug_info    0x000000000003c7ef      0x327 /opt/microchip/xc32/v4.35/bin/bin/../../lib/gcc/pic32mx/8.3.1/../../../../pic32mx/lib/fpu64/libc-musl.a(__fmt_d.o)
 .debug_info    0x000000000003cb16      0x64e /opt/microchip/xc32/v4.35/bin/bin/../../lib/gcc/pic32mx/8.3.1/../../../../pic32mx/lib/fpu64/libc-musl.a(__fmt_fp.o)
 .debug_info    0x000000000003d164      0x2f8 /opt/microchip/xc32/v4.35/bin/bin/../../lib/gcc/pic32mx/8.3.1/../../../../pic32mx/lib/fpu64/libc-musl.a(__fmt_o.o)
 .debug_info    0x000000000003d45c      0x2a9 /opt/microchip/xc32/v4.35/bin/bin/../../lib/gcc/pic32mx/8.3.1/../../../../pic32mx/lib/fpu64/libc-musl.a(__fmt_s.o)
 .debug_info    0x000000000003d705      0x2f8 /opt/microchip/xc32/v4.35/bin/bin/../../lib/gcc/pic32mx/8.3.1/../../../../pic32mx/lib/fpu64/libc-musl.a(__fmt_u.o)
 .debug_info    0x000000000003d9fd      0x328 /opt/microchip/xc32/v4.35/bin/bin/../../lib/gcc/pic32mx/8.3.1/../../../../pic32mx/lib/fpu64/libc-musl.a(__fmt_x.o)
 .debug_info    0x000000000003dd25       0xbb /opt/microchip/xc32/v4.35/bin/bin/../../lib/gcc/pic32mx/8.3.1/../../../../pic32mx/lib/fpu64/libc-musl.a(strcpy.o)
 .debug_info    0x000000000003dde0      0x11b /opt/microchip/xc32/v4.35/bin/bin/../../lib/gcc/pic32mx/8.3.1/../../../../pic32mx/lib/fpu64/libc-musl.a(toupper.o)
 .debug_info    0x000000000003defb      0x1d0 /opt/microchip/xc32/v4.35/bin/bin/../../lib/gcc/pic32mx/8.3.1/../../../../pic32mx/lib/fpu64/libc-musl.a(__cvt_u.o)
 .debug_info    0x000000000003e0cb       0xab /opt/microchip/xc32/v4.35/bin/bin/../../lib/gcc/pic32mx/8.3.1/../../../../pic32mx/lib/fpu64/libc-musl.a(stpcpy.o)
 .debug_info    0x000000000003e176      0x16d /opt/microchip/xc32/v4.35/bin/bin/../../lib/gcc/pic32mx/8.3.1/../../../../pic32mx/lib/fpu64/libm-musl.a(floor.o)
 .debug_info    0x000000000003e2e3      0x534 /opt/microchip/xc32/v4.35/bin/bin/../../lib/gcc/pic32mx/8.3.1/../../../../pic32mx/lib/fpu64/libm-musl.a(fma.o)
 .debug_info    0x000000000003e817      0x109 /opt/microchip/xc32/v4.35/bin/bin/../../lib/gcc/pic32mx/8.3.1/../../../../pic32mx/lib/fpu64/libm-musl.a(scalbn.o)
 .debug_info    0x000000000003e920      0x1aa /opt/microchip/xc32/v4.35/bin/bin/../../lib/gcc/pic32mx/8.3.1/fpu64/libgcc.a(_lshrdi3.o)
 .debug_info    0x000000000003eaca      0x1aa /opt/microchip/xc32/v4.35/bin/bin/../../lib/gcc/pic32mx/8.3.1/fpu64/libgcc.a(_ashldi3.o)
 .debug_info    0x000000000003ec74      0x71c /opt/microchip/xc32/v4.35/bin/bin/../../lib/gcc/pic32mx/8.3.1/fpu64/libgcc.a(_divdi3.o)
 .debug_info    0x000000000003f390      0x775 /opt/microchip/xc32/v4.35/bin/bin/../../lib/gcc/pic32mx/8.3.1/fpu64/libgcc.a(_moddi3.o)
 .debug_info    0x000000000003fb05      0x73e /opt/microchip/xc32/v4.35/bin/bin/../../lib/gcc/pic32mx/8.3.1/fpu64/libgcc.a(_umoddi3.o)

.debug_abbrev   0x0000000000000000     0xc1ef
 *.elf(.debug_abbrev)
 *(.debug_abbrev)
 .debug_abbrev  0x0000000000000000      0x170 build/default/production/_ext/1529399856/osal_freertos.o
 .debug_abbrev  0x0000000000000170       0xce build/default/production/_ext/60165520/plib_clk.o
 .debug_abbrev  0x000000000000023e      0x1bb build/default/production/_ext/1249264884/plib_coretimer.o
 .debug_abbrev  0x00000000000003f9       0xd2 build/default/production/_ext/1865200349/plib_evic.o
 .debug_abbrev  0x00000000000004cb      0x267 build/default/production/_ext/1865254177/plib_gpio.o
 .debug_abbrev  0x0000000000000732      0x1b0 build/default/production/_ext/60181895/plib_tmr9.o
 .debug_abbrev  0x00000000000008e2      0x1b0 build/default/production/_ext/60181895/plib_tmr8.o
 .debug_abbrev  0x0000000000000a92      0x297 build/default/production/_ext/1865657120/plib_uart2.o
 .debug_abbrev  0x0000000000000d29       0x9c build/default/production/_ext/163028504/xc32_monitor.o
 .debug_abbrev  0x0000000000000dc5      0x22b build/default/production/_ext/1832805299/sys_console_uart.o
 .debug_abbrev  0x0000000000000ff0      0x26f build/default/production/_ext/1832805299/sys_console.o
 .debug_abbrev  0x000000000000125f      0x16c build/default/production/_ext/944882569/sys_debug.o
 .debug_abbrev  0x00000000000013cb      0x123 build/default/production/_ext/14461671/sys_dma.o
 .debug_abbrev  0x00000000000014ee       0xcb build/default/production/_ext/1881668453/sys_int.o
 .debug_abbrev  0x00000000000015b9      0x32b build/default/production/_ext/101884895/sys_time.o
 .debug_abbrev  0x00000000000018e4       0xf6 build/default/production/_ext/1171490990/freertos_hooks.o
 .debug_abbrev  0x00000000000019da       0x44 build/default/production/_ext/1171490990/interrupts.o
 .debug_abbrev  0x0000000000001a1e      0x14f build/default/production/_ext/1171490990/tasks.o
 .debug_abbrev  0x0000000000001b6d      0x248 build/default/production/_ext/1171490990/initialization.o
 .debug_abbrev  0x0000000000001db5       0x12 build/default/production/_ext/1171490990/interrupts_a.o
 .debug_abbrev  0x0000000000001dc7       0x8c build/default/production/_ext/1171490990/exceptions.o
 .debug_abbrev  0x0000000000001e53      0x10b build/default/production/_ext/1665200909/heap_1.o
 .debug_abbrev  0x0000000000001f5e       0x12 build/default/production/_ext/951553246/port_asm.o
 .debug_abbrev  0x0000000000001f70      0x2a2 build/default/production/_ext/951553246/port.o
 .debug_abbrev  0x0000000000002212       0x26 build/default/production/_ext/404212886/croutine.o
 .debug_abbrev  0x0000000000002238      0x1c1 build/default/production/_ext/404212886/queue.o
 .debug_abbrev  0x00000000000023f9       0x26 build/default/production/_ext/404212886/timers.o
 .debug_abbrev  0x000000000000241f      0x1b3 build/default/production/_ext/404212886/stream_buffer.o
 .debug_abbrev  0x00000000000025d2      0x170 build/default/production/_ext/404212886/event_groups.o
 .debug_abbrev  0x0000000000002742      0x262 build/default/production/_ext/404212886/FreeRTOS_tasks.o
 .debug_abbrev  0x00000000000029a4       0xfe build/default/production/_ext/404212886/list.o
 .debug_abbrev  0x0000000000002aa2      0x10b build/default/production/_ext/1360937237/app.o
 .debug_abbrev  0x0000000000002bad       0xd4 build/default/production/_ext/1360937237/main.o
 .debug_abbrev  0x0000000000002c81      0x30b build/default/production/_ext/1954180691/wdrv_winc.o
 .debug_abbrev  0x0000000000002f8c      0x271 build/default/production/_ext/1865161661/plib_dmac.o
 .debug_abbrev  0x00000000000031fd      0x28e build/default/production/_ext/1954180691/wdrv_winc_nvm.o
 .debug_abbrev  0x000000000000348b      0x257 build/default/production/_ext/651226651/event.o
 .debug_abbrev  0x00000000000036e2      0x171 build/default/production/_ext/1954180691/wdrv_winc_bssctx.o
 .debug_abbrev  0x0000000000003853      0x172 build/default/production/_ext/651226651/gatt_client.o
 .debug_abbrev  0x00000000000039c5      0x1e5 build/default/production/_ext/298189674/plib_spi1_master.o
 .debug_abbrev  0x0000000000003baa      0x204 build/default/production/_ext/1954180691/wdrv_winc_powersave.o
 .debug_abbrev  0x0000000000003dae      0x213 build/default/production/_ext/1954180691/wdrv_winc_systime.o
 .debug_abbrev  0x0000000000003fc1      0x21b build/default/production/_ext/651226651/gattc_task.o
 .debug_abbrev  0x00000000000041dc      0x2a2 build/default/production/_ext/1667573777/m2m_hif.o
 .debug_abbrev  0x000000000000447e      0x159 build/default/production/_ext/1667573777/m2m_periph.o
 .debug_abbrev  0x00000000000045d7       0xba build/default/production/_ext/1068697685/wdrv_winc_eint.o
 .debug_abbrev  0x0000000000004691       0xfe build/default/production/_ext/651226651/interface.o
 .debug_abbrev  0x000000000000478f      0x2ac build/default/production/_ext/651226651/gapc_task.o
 .debug_abbrev  0x0000000000004a3b       0xd9 build/default/production/_ext/651226651/error.o
 .debug_abbrev  0x0000000000004b14      0x256 build/default/production/_ext/1954180691/wdrv_winc_sta.o
 .debug_abbrev  0x0000000000004d6a      0x194 build/default/production/_ext/651226651/wifiprov_task.o
 .debug_abbrev  0x0000000000004efe      0x173 build/default/production/_ext/1908349716/spi_flash.o
 .debug_abbrev  0x0000000000005071      0x2a3 build/default/production/_ext/2094051164/socket.o
 .debug_abbrev  0x0000000000005314      0x17d build/default/production/_ext/1697030576/wdrv_winc_spi.o
 .debug_abbrev  0x0000000000005491      0x264 build/default/production/_ext/1667573777/m2m_wifi.o
 .debug_abbrev  0x00000000000056f5      0x19c build/default/production/_ext/1667573777/nmbus.o
 .debug_abbrev  0x0000000000005891      0x213 build/default/production/_ext/1954180691/wdrv_winc_wps.o
 .debug_abbrev  0x0000000000005aa4      0x1d2 build/default/production/_ext/651226651/gatt_server.o
 .debug_abbrev  0x0000000000005c76      0x1b4 build/default/production/_ext/1954180691/wdrv_winc_httpprovctx.o
 .debug_abbrev  0x0000000000005e2a      0x22f build/default/production/_ext/1954180691/wdrv_winc_softap.o
 .debug_abbrev  0x0000000000006059      0x23c build/default/production/_ext/1667573777/nmspi.o
 .debug_abbrev  0x0000000000006295      0x267 build/default/production/_ext/1954180691/wdrv_winc_ble.o
 .debug_abbrev  0x00000000000064fc      0x19e build/default/production/_ext/1667573777/nmdrv.o
 .debug_abbrev  0x000000000000669a       0x96 build/default/production/_ext/2094051164/inet_addr.o
 .debug_abbrev  0x0000000000006730      0x15d build/default/production/_ext/1667573777/m2m_ota.o
 .debug_abbrev  0x000000000000688d       0x73 build/default/production/_ext/2018374705/wdrv_winc_osal.o
 .debug_abbrev  0x0000000000006900      0x212 build/default/production/_ext/1954180691/wdrv_winc_authctx.o
 .debug_abbrev  0x0000000000006b12      0x172 build/default/production/_ext/1306418660/platform.o
 .debug_abbrev  0x0000000000006c84      0x24f build/default/production/_ext/1954180691/wdrv_winc_bssfind.o
 .debug_abbrev  0x0000000000006ed3      0x137 build/default/production/_ext/651226651/gattm_task.o
 .debug_abbrev  0x000000000000700a      0x135 build/default/production/_ext/1954180691/wdrv_winc_custie.o
 .debug_abbrev  0x000000000000713f      0x244 build/default/production/_ext/1954180691/wdrv_winc_enterprise.o
 .debug_abbrev  0x0000000000007383      0x140 build/default/production/_ext/651226651/htpt.o
 .debug_abbrev  0x00000000000074c3       0xce build/default/production/_ext/2094051164/inet_ntop.o
 .debug_abbrev  0x0000000000007591       0xfb build/default/production/_ext/1636284884/nm_common.o
 .debug_abbrev  0x000000000000768c      0x1c7 build/default/production/_ext/1667573777/m2m_flash.o
 .debug_abbrev  0x0000000000007853      0x254 build/default/production/_ext/651226651/gapm_task.o
 .debug_abbrev  0x0000000000007aa7      0x2ad build/default/production/_ext/1954180691/wdrv_winc_ssl.o
 .debug_abbrev  0x0000000000007d54      0x153 build/default/production/_ext/651226651/dbg_task.o
 .debug_abbrev  0x0000000000007ea7      0x308 build/default/production/_ext/2070931557/drv_spi.o
 .debug_abbrev  0x00000000000081af      0x2ac build/default/production/_ext/1954180691/wdrv_winc_socket.o
 .debug_abbrev  0x000000000000845b      0x26b build/default/production/_ext/651226651/gap.o
 .debug_abbrev  0x00000000000086c6      0x23b build/default/production/_ext/1667573777/m2m_ssl.o
 .debug_abbrev  0x0000000000008901       0x6d build/default/production/_ext/1068697685/wdrv_winc_gpio.o
 .debug_abbrev  0x000000000000896e      0x189 build/default/production/_ext/651226651/security.o
 .debug_abbrev  0x0000000000008af7      0x244 build/default/production/_ext/1954180691/wdrv_winc_assoc.o
 .debug_abbrev  0x0000000000008d3b      0x171 build/default/production/_ext/651226651/htpt_task.o
 .debug_abbrev  0x0000000000008eac      0x222 build/default/production/_ext/1667573777/nmasic.o
 .debug_abbrev  0x00000000000090ce      0x1d9 build/default/production/example.o
 .debug_abbrev  0x00000000000092a7      0x184 /opt/microchip/xc32/v4.35/bin/bin/../../lib/gcc/pic32mx/8.3.1/fpu64/libgcc.a(_udivdi3.o)
 .debug_abbrev  0x000000000000942b       0x2e /opt/microchip/xc32/v4.35/bin/bin/../../lib/gcc/pic32mx/8.3.1/../../../../pic32mx/lib/fpu64/libpic32.a(default-on-reset.o)
 .debug_abbrev  0x0000000000009459       0x2e /opt/microchip/xc32/v4.35/bin/bin/../../lib/gcc/pic32mx/8.3.1/../../../../pic32mx/lib/fpu64/libpic32.a(default-on-bootstrap.o)
 .debug_abbrev  0x0000000000009487       0x31 /opt/microchip/xc32/v4.35/bin/bin/../../lib/gcc/pic32mx/8.3.1/../../../../pic32mx/lib/fpu64/libpic32.a(defaultinterrupt.o)
 .debug_abbrev  0x00000000000094b8      0x182 /opt/microchip/xc32/v4.35/bin/bin/../../lib/gcc/pic32mx/8.3.1/../../../../pic32mx/lib/fpu64/libc-musl.a(vsnprintf.o)
 .debug_abbrev  0x000000000000963a       0xdb /opt/microchip/xc32/v4.35/bin/bin/../../lib/gcc/pic32mx/8.3.1/../../../../pic32mx/lib/fpu64/libc-musl.a(sprintf.o)
 .debug_abbrev  0x0000000000009715       0xb1 /opt/microchip/xc32/v4.35/bin/bin/../../lib/gcc/pic32mx/8.3.1/../../../../pic32mx/lib/fpu64/libc-musl.a(vsprintf.o)
 .debug_abbrev  0x00000000000097c6       0xad /opt/microchip/xc32/v4.35/bin/bin/../../lib/gcc/pic32mx/8.3.1/../../../../pic32mx/lib/fpu64/libc-musl.a(strchr.o)
 .debug_abbrev  0x0000000000009873       0xbc /opt/microchip/xc32/v4.35/bin/bin/../../lib/gcc/pic32mx/8.3.1/../../../../pic32mx/lib/fpu64/libc-musl.a(strchrnul.o)
 .debug_abbrev  0x000000000000992f       0xb1 /opt/microchip/xc32/v4.35/bin/bin/../../lib/gcc/pic32mx/8.3.1/../../../../pic32mx/lib/fpu64/libc-musl.a(strnlen.o)
 .debug_abbrev  0x00000000000099e0       0xdb /opt/microchip/xc32/v4.35/bin/bin/../../lib/gcc/pic32mx/8.3.1/../../../../pic32mx/lib/fpu64/libc-musl.a(gmtime.o)
 .debug_abbrev  0x0000000000009abb       0xdd /opt/microchip/xc32/v4.35/bin/bin/../../lib/gcc/pic32mx/8.3.1/../../../../pic32mx/lib/fpu64/libc-musl.a(gmtime_r.o)
 .debug_abbrev  0x0000000000009b98      0x130 /opt/microchip/xc32/v4.35/bin/bin/../../lib/gcc/pic32mx/8.3.1/../../../../pic32mx/lib/fpu64/libc-musl.a(mktime.o)
 .debug_abbrev  0x0000000000009cc8      0x178 /opt/microchip/xc32/v4.35/bin/bin/../../lib/gcc/pic32mx/8.3.1/../../../../pic32mx/lib/fpu64/libc-musl.a(vfprintf.o)
 .debug_abbrev  0x0000000000009e40       0xb1 /opt/microchip/xc32/v4.35/bin/bin/../../lib/gcc/pic32mx/8.3.1/../../../../pic32mx/lib/fpu64/libc-musl.a(memchr.o)
 .debug_abbrev  0x0000000000009ef1      0x10c /opt/microchip/xc32/v4.35/bin/bin/../../lib/gcc/pic32mx/8.3.1/../../../../pic32mx/lib/fpu64/libc-musl.a(__tm_to_secs.o)
 .debug_abbrev  0x0000000000009ffd       0x96 /opt/microchip/xc32/v4.35/bin/bin/../../lib/gcc/pic32mx/8.3.1/../../../../pic32mx/lib/fpu64/libc-musl.a(__year_to_secs.o)
 .debug_abbrev  0x000000000000a093       0xc7 /opt/microchip/xc32/v4.35/bin/bin/../../lib/gcc/pic32mx/8.3.1/../../../../pic32mx/lib/fpu64/libc-musl.a(__secs_to_tm.o)
 .debug_abbrev  0x000000000000a15a       0x67 /opt/microchip/xc32/v4.35/bin/bin/../../lib/gcc/pic32mx/8.3.1/../../../../pic32mx/lib/fpu64/libc-musl.a(__io_fmt_needed.o)
 .debug_abbrev  0x000000000000a1c1       0xc3 /opt/microchip/xc32/v4.35/bin/bin/../../lib/gcc/pic32mx/8.3.1/../../../../pic32mx/lib/fpu64/libc-musl.a(__pop_float.o)
 .debug_abbrev  0x000000000000a284       0xc3 /opt/microchip/xc32/v4.35/bin/bin/../../lib/gcc/pic32mx/8.3.1/../../../../pic32mx/lib/fpu64/libc-musl.a(__pop_int.o)
 .debug_abbrev  0x000000000000a347       0xd7 /opt/microchip/xc32/v4.35/bin/bin/../../lib/gcc/pic32mx/8.3.1/../../../../pic32mx/lib/fpu64/libc-musl.a(__pop_ptr.o)
 .debug_abbrev  0x000000000000a41e      0x318 /opt/microchip/xc32/v4.35/bin/bin/../../lib/gcc/pic32mx/8.3.1/../../../../pic32mx/lib/fpu64/libc-musl.a(__printf_core.o)
 .debug_abbrev  0x000000000000a736       0xc4 /opt/microchip/xc32/v4.35/bin/bin/../../lib/gcc/pic32mx/8.3.1/../../../../pic32mx/lib/fpu64/libc-musl.a(atoi.o)
 .debug_abbrev  0x000000000000a7fa       0xad /opt/microchip/xc32/v4.35/bin/bin/../../lib/gcc/pic32mx/8.3.1/../../../../pic32mx/lib/fpu64/libc-musl.a(__month_to_secs.o)
 .debug_abbrev  0x000000000000a8a7       0xf1 /opt/microchip/xc32/v4.35/bin/bin/../../lib/gcc/pic32mx/8.3.1/../../../../pic32mx/lib/fpu64/libc-musl.a(tolower.o)
 .debug_abbrev  0x000000000000a998      0x1d5 /opt/microchip/xc32/v4.35/bin/bin/../../lib/gcc/pic32mx/8.3.1/../../../../pic32mx/lib/fpu64/libc-musl.a(__fmt_a.o)
 .debug_abbrev  0x000000000000ab6d      0x161 /opt/microchip/xc32/v4.35/bin/bin/../../lib/gcc/pic32mx/8.3.1/../../../../pic32mx/lib/fpu64/libc-musl.a(__fmt_d.o)
 .debug_abbrev  0x000000000000acce      0x1e3 /opt/microchip/xc32/v4.35/bin/bin/../../lib/gcc/pic32mx/8.3.1/../../../../pic32mx/lib/fpu64/libc-musl.a(__fmt_fp.o)
 .debug_abbrev  0x000000000000aeb1      0x161 /opt/microchip/xc32/v4.35/bin/bin/../../lib/gcc/pic32mx/8.3.1/../../../../pic32mx/lib/fpu64/libc-musl.a(__fmt_o.o)
 .debug_abbrev  0x000000000000b012      0x14c /opt/microchip/xc32/v4.35/bin/bin/../../lib/gcc/pic32mx/8.3.1/../../../../pic32mx/lib/fpu64/libc-musl.a(__fmt_s.o)
 .debug_abbrev  0x000000000000b15e      0x161 /opt/microchip/xc32/v4.35/bin/bin/../../lib/gcc/pic32mx/8.3.1/../../../../pic32mx/lib/fpu64/libc-musl.a(__fmt_u.o)
 .debug_abbrev  0x000000000000b2bf      0x150 /opt/microchip/xc32/v4.35/bin/bin/../../lib/gcc/pic32mx/8.3.1/../../../../pic32mx/lib/fpu64/libc-musl.a(__fmt_x.o)
 .debug_abbrev  0x000000000000b40f       0xa2 /opt/microchip/xc32/v4.35/bin/bin/../../lib/gcc/pic32mx/8.3.1/../../../../pic32mx/lib/fpu64/libc-musl.a(strcpy.o)
 .debug_abbrev  0x000000000000b4b1       0xf1 /opt/microchip/xc32/v4.35/bin/bin/../../lib/gcc/pic32mx/8.3.1/../../../../pic32mx/lib/fpu64/libc-musl.a(toupper.o)
 .debug_abbrev  0x000000000000b5a2       0xe5 /opt/microchip/xc32/v4.35/bin/bin/../../lib/gcc/pic32mx/8.3.1/../../../../pic32mx/lib/fpu64/libc-musl.a(__cvt_u.o)
 .debug_abbrev  0x000000000000b687       0x6e /opt/microchip/xc32/v4.35/bin/bin/../../lib/gcc/pic32mx/8.3.1/../../../../pic32mx/lib/fpu64/libc-musl.a(stpcpy.o)
 .debug_abbrev  0x000000000000b6f5      0x101 /opt/microchip/xc32/v4.35/bin/bin/../../lib/gcc/pic32mx/8.3.1/../../../../pic32mx/lib/fpu64/libm-musl.a(floor.o)
 .debug_abbrev  0x000000000000b7f6      0x22d /opt/microchip/xc32/v4.35/bin/bin/../../lib/gcc/pic32mx/8.3.1/../../../../pic32mx/lib/fpu64/libm-musl.a(fma.o)
 .debug_abbrev  0x000000000000ba23       0xac /opt/microchip/xc32/v4.35/bin/bin/../../lib/gcc/pic32mx/8.3.1/../../../../pic32mx/lib/fpu64/libm-musl.a(scalbn.o)
 .debug_abbrev  0x000000000000bacf      0x121 /opt/microchip/xc32/v4.35/bin/bin/../../lib/gcc/pic32mx/8.3.1/fpu64/libgcc.a(_lshrdi3.o)
 .debug_abbrev  0x000000000000bbf0      0x121 /opt/microchip/xc32/v4.35/bin/bin/../../lib/gcc/pic32mx/8.3.1/fpu64/libgcc.a(_ashldi3.o)
 .debug_abbrev  0x000000000000bd11      0x1a3 /opt/microchip/xc32/v4.35/bin/bin/../../lib/gcc/pic32mx/8.3.1/fpu64/libgcc.a(_divdi3.o)
 .debug_abbrev  0x000000000000beb4      0x1a1 /opt/microchip/xc32/v4.35/bin/bin/../../lib/gcc/pic32mx/8.3.1/fpu64/libgcc.a(_moddi3.o)
 .debug_abbrev  0x000000000000c055      0x19a /opt/microchip/xc32/v4.35/bin/bin/../../lib/gcc/pic32mx/8.3.1/fpu64/libgcc.a(_umoddi3.o)

.debug_line     0x0000000000000000    0x20d1c
 *.elf(.debug_line)
 *(.debug_line)
 .debug_line    0x0000000000000000      0x387 build/default/production/_ext/1529399856/osal_freertos.o
 .debug_line    0x0000000000000387      0x163 build/default/production/_ext/60165520/plib_clk.o
 .debug_line    0x00000000000004ea      0x209 build/default/production/_ext/1249264884/plib_coretimer.o
 .debug_line    0x00000000000006f3      0x229 build/default/production/_ext/1865200349/plib_evic.o
 .debug_line    0x000000000000091c      0x397 build/default/production/_ext/1865254177/plib_gpio.o
 .debug_line    0x0000000000000cb3      0x1da build/default/production/_ext/60181895/plib_tmr9.o
 .debug_line    0x0000000000000e8d      0x1da build/default/production/_ext/60181895/plib_tmr8.o
 .debug_line    0x0000000000001067      0x63c build/default/production/_ext/1865657120/plib_uart2.o
 .debug_line    0x00000000000016a3       0xed build/default/production/_ext/163028504/xc32_monitor.o
 .debug_line    0x0000000000001790      0x50f build/default/production/_ext/1832805299/sys_console_uart.o
 .debug_line    0x0000000000001c9f      0x5e8 build/default/production/_ext/1832805299/sys_console.o
 .debug_line    0x0000000000002287      0x229 build/default/production/_ext/944882569/sys_debug.o
 .debug_line    0x00000000000024b0      0x209 build/default/production/_ext/14461671/sys_dma.o
 .debug_line    0x00000000000026b9      0x191 build/default/production/_ext/1881668453/sys_int.o
 .debug_line    0x000000000000284a      0xb6f build/default/production/_ext/101884895/sys_time.o
 .debug_line    0x00000000000033b9      0x18a build/default/production/_ext/1171490990/freertos_hooks.o
 .debug_line    0x0000000000003543       0xea build/default/production/_ext/1171490990/interrupts.o
 .debug_line    0x000000000000362d      0x31b build/default/production/_ext/1171490990/tasks.o
 .debug_line    0x0000000000003948      0x756 build/default/production/_ext/1171490990/initialization.o
 .debug_line    0x000000000000409e      0x14d build/default/production/_ext/1171490990/interrupts_a.o
 .debug_line    0x00000000000041eb      0x19c build/default/production/_ext/1171490990/exceptions.o
 .debug_line    0x0000000000004387      0x159 build/default/production/_ext/1665200909/heap_1.o
 .debug_line    0x00000000000044e0      0x131 build/default/production/_ext/951553246/port_asm.o
 .debug_line    0x0000000000004611      0x2b2 build/default/production/_ext/951553246/port.o
 .debug_line    0x00000000000048c3       0x1d build/default/production/_ext/404212886/croutine.o
 .debug_line    0x00000000000048e0      0x894 build/default/production/_ext/404212886/queue.o
 .debug_line    0x0000000000005174       0x1d build/default/production/_ext/404212886/timers.o
 .debug_line    0x0000000000005191      0x5fc build/default/production/_ext/404212886/stream_buffer.o
 .debug_line    0x000000000000578d      0x437 build/default/production/_ext/404212886/event_groups.o
 .debug_line    0x0000000000005bc4      0xd10 build/default/production/_ext/404212886/FreeRTOS_tasks.o
 .debug_line    0x00000000000068d4      0x2a6 build/default/production/_ext/404212886/list.o
 .debug_line    0x0000000000006b7a      0x361 build/default/production/_ext/1360937237/app.o
 .debug_line    0x0000000000006edb      0x1b9 build/default/production/_ext/1360937237/main.o
 .debug_line    0x0000000000007094     0x1183 build/default/production/_ext/1954180691/wdrv_winc.o
 .debug_line    0x0000000000008217      0x5e6 build/default/production/_ext/1865161661/plib_dmac.o
 .debug_line    0x00000000000087fd      0x78f build/default/production/_ext/1954180691/wdrv_winc_nvm.o
 .debug_line    0x0000000000008f8c      0x689 build/default/production/_ext/651226651/event.o
 .debug_line    0x0000000000009615      0x29f build/default/production/_ext/1954180691/wdrv_winc_bssctx.o
 .debug_line    0x00000000000098b4      0x3a6 build/default/production/_ext/651226651/gatt_client.o
 .debug_line    0x0000000000009c5a      0x4f6 build/default/production/_ext/298189674/plib_spi1_master.o
 .debug_line    0x000000000000a150      0x56e build/default/production/_ext/1954180691/wdrv_winc_powersave.o
 .debug_line    0x000000000000a6be      0x652 build/default/production/_ext/1954180691/wdrv_winc_systime.o
 .debug_line    0x000000000000ad10      0x4c7 build/default/production/_ext/651226651/gattc_task.o
 .debug_line    0x000000000000b1d7      0x969 build/default/production/_ext/1667573777/m2m_hif.o
 .debug_line    0x000000000000bb40      0x209 build/default/production/_ext/1667573777/m2m_periph.o
 .debug_line    0x000000000000bd49      0x1f3 build/default/production/_ext/1068697685/wdrv_winc_eint.o
 .debug_line    0x000000000000bf3c      0x23d build/default/production/_ext/651226651/interface.o
 .debug_line    0x000000000000c179      0x5f0 build/default/production/_ext/651226651/gapc_task.o
 .debug_line    0x000000000000c769      0x258 build/default/production/_ext/651226651/error.o
 .debug_line    0x000000000000c9c1      0x81d build/default/production/_ext/1954180691/wdrv_winc_sta.o
 .debug_line    0x000000000000d1de      0x31c build/default/production/_ext/651226651/wifiprov_task.o
 .debug_line    0x000000000000d4fa      0x60a build/default/production/_ext/1908349716/spi_flash.o
 .debug_line    0x000000000000db04      0xbc8 build/default/production/_ext/2094051164/socket.o
 .debug_line    0x000000000000e6cc      0x626 build/default/production/_ext/1697030576/wdrv_winc_spi.o
 .debug_line    0x000000000000ecf2     0x11f1 build/default/production/_ext/1667573777/m2m_wifi.o
 .debug_line    0x000000000000fee3      0x252 build/default/production/_ext/1667573777/nmbus.o
 .debug_line    0x0000000000010135      0x5aa build/default/production/_ext/1954180691/wdrv_winc_wps.o
 .debug_line    0x00000000000106df      0x968 build/default/production/_ext/651226651/gatt_server.o
 .debug_line    0x0000000000011047      0x26e build/default/production/_ext/1954180691/wdrv_winc_httpprovctx.o
 .debug_line    0x00000000000112b5      0x71c build/default/production/_ext/1954180691/wdrv_winc_softap.o
 .debug_line    0x00000000000119d1      0x98b build/default/production/_ext/1667573777/nmspi.o
 .debug_line    0x000000000001235c      0x6bc build/default/production/_ext/1954180691/wdrv_winc_ble.o
 .debug_line    0x0000000000012a18      0x48d build/default/production/_ext/1667573777/nmdrv.o
 .debug_line    0x0000000000012ea5      0x1fe build/default/production/_ext/2094051164/inet_addr.o
 .debug_line    0x00000000000130a3      0x318 build/default/production/_ext/1667573777/m2m_ota.o
 .debug_line    0x00000000000133bb      0x184 build/default/production/_ext/2018374705/wdrv_winc_osal.o
 .debug_line    0x000000000001353f      0x56d build/default/production/_ext/1954180691/wdrv_winc_authctx.o
 .debug_line    0x0000000000013aac      0x3de build/default/production/_ext/1306418660/platform.o
 .debug_line    0x0000000000013e8a      0x7a5 build/default/production/_ext/1954180691/wdrv_winc_bssfind.o
 .debug_line    0x000000000001462f      0x2c3 build/default/production/_ext/651226651/gattm_task.o
 .debug_line    0x00000000000148f2      0x279 build/default/production/_ext/1954180691/wdrv_winc_custie.o
 .debug_line    0x0000000000014b6b      0x665 build/default/production/_ext/1954180691/wdrv_winc_enterprise.o
 .debug_line    0x00000000000151d0      0x268 build/default/production/_ext/651226651/htpt.o
 .debug_line    0x0000000000015438      0x1df build/default/production/_ext/2094051164/inet_ntop.o
 .debug_line    0x0000000000015617      0x154 build/default/production/_ext/1636284884/nm_common.o
 .debug_line    0x000000000001576b      0x520 build/default/production/_ext/1667573777/m2m_flash.o
 .debug_line    0x0000000000015c8b      0x530 build/default/production/_ext/651226651/gapm_task.o
 .debug_line    0x00000000000161bb      0x721 build/default/production/_ext/1954180691/wdrv_winc_ssl.o
 .debug_line    0x00000000000168dc      0x304 build/default/production/_ext/651226651/dbg_task.o
 .debug_line    0x0000000000016be0      0xd13 build/default/production/_ext/2070931557/drv_spi.o
 .debug_line    0x00000000000178f3      0x80e build/default/production/_ext/1954180691/wdrv_winc_socket.o
 .debug_line    0x0000000000018101      0x7f6 build/default/production/_ext/651226651/gap.o
 .debug_line    0x00000000000188f7      0x544 build/default/production/_ext/1667573777/m2m_ssl.o
 .debug_line    0x0000000000018e3b      0x171 build/default/production/_ext/1068697685/wdrv_winc_gpio.o
 .debug_line    0x0000000000018fac      0x38c build/default/production/_ext/651226651/security.o
 .debug_line    0x0000000000019338      0x5a3 build/default/production/_ext/1954180691/wdrv_winc_assoc.o
 .debug_line    0x00000000000198db      0x32e build/default/production/_ext/651226651/htpt_task.o
 .debug_line    0x0000000000019c09      0x735 build/default/production/_ext/1667573777/nmasic.o
 .debug_line    0x000000000001a33e      0x4fa build/default/production/example.o
 .debug_line    0x000000000001a838      0x2db /opt/microchip/xc32/v4.35/bin/bin/../../lib/gcc/pic32mx/8.3.1/fpu64/libgcc.a(_udivdi3.o)
 .debug_line    0x000000000001ab13       0xa8 /opt/microchip/xc32/v4.35/bin/bin/../../lib/gcc/pic32mx/8.3.1/../../../../pic32mx/lib/fpu64/libpic32.a(default-on-reset.o)
 .debug_line    0x000000000001abbb       0xac /opt/microchip/xc32/v4.35/bin/bin/../../lib/gcc/pic32mx/8.3.1/../../../../pic32mx/lib/fpu64/libpic32.a(default-on-bootstrap.o)
 .debug_line    0x000000000001ac67       0xcb /opt/microchip/xc32/v4.35/bin/bin/../../lib/gcc/pic32mx/8.3.1/../../../../pic32mx/lib/fpu64/libpic32.a(defaultinterrupt.o)
 .debug_line    0x000000000001ad32      0x280 /opt/microchip/xc32/v4.35/bin/bin/../../lib/gcc/pic32mx/8.3.1/../../../../pic32mx/lib/fpu64/libc-musl.a(vsnprintf.o)
 .debug_line    0x000000000001afb2      0x1a7 /opt/microchip/xc32/v4.35/bin/bin/../../lib/gcc/pic32mx/8.3.1/../../../../pic32mx/lib/fpu64/libc-musl.a(sprintf.o)
 .debug_line    0x000000000001b159      0x198 /opt/microchip/xc32/v4.35/bin/bin/../../lib/gcc/pic32mx/8.3.1/../../../../pic32mx/lib/fpu64/libc-musl.a(vsprintf.o)
 .debug_line    0x000000000001b2f1       0xbb /opt/microchip/xc32/v4.35/bin/bin/../../lib/gcc/pic32mx/8.3.1/../../../../pic32mx/lib/fpu64/libc-musl.a(strchr.o)
 .debug_line    0x000000000001b3ac      0x1fe /opt/microchip/xc32/v4.35/bin/bin/../../lib/gcc/pic32mx/8.3.1/../../../../pic32mx/lib/fpu64/libc-musl.a(strchrnul.o)
 .debug_line    0x000000000001b5aa      0x1a7 /opt/microchip/xc32/v4.35/bin/bin/../../lib/gcc/pic32mx/8.3.1/../../../../pic32mx/lib/fpu64/libc-musl.a(strnlen.o)
 .debug_line    0x000000000001b751      0x194 /opt/microchip/xc32/v4.35/bin/bin/../../lib/gcc/pic32mx/8.3.1/../../../../pic32mx/lib/fpu64/libc-musl.a(gmtime.o)
 .debug_line    0x000000000001b8e5      0x24f /opt/microchip/xc32/v4.35/bin/bin/../../lib/gcc/pic32mx/8.3.1/../../../../pic32mx/lib/fpu64/libc-musl.a(gmtime_r.o)
 .debug_line    0x000000000001bb34      0x26b /opt/microchip/xc32/v4.35/bin/bin/../../lib/gcc/pic32mx/8.3.1/../../../../pic32mx/lib/fpu64/libc-musl.a(mktime.o)
 .debug_line    0x000000000001bd9f      0x252 /opt/microchip/xc32/v4.35/bin/bin/../../lib/gcc/pic32mx/8.3.1/../../../../pic32mx/lib/fpu64/libc-musl.a(vfprintf.o)
 .debug_line    0x000000000001bff1      0x140 /opt/microchip/xc32/v4.35/bin/bin/../../lib/gcc/pic32mx/8.3.1/../../../../pic32mx/lib/fpu64/libc-musl.a(memchr.o)
 .debug_line    0x000000000001c131      0x1dc /opt/microchip/xc32/v4.35/bin/bin/../../lib/gcc/pic32mx/8.3.1/../../../../pic32mx/lib/fpu64/libc-musl.a(__tm_to_secs.o)
 .debug_line    0x000000000001c30d      0x1e7 /opt/microchip/xc32/v4.35/bin/bin/../../lib/gcc/pic32mx/8.3.1/../../../../pic32mx/lib/fpu64/libc-musl.a(__year_to_secs.o)
 .debug_line    0x000000000001c4f4      0x312 /opt/microchip/xc32/v4.35/bin/bin/../../lib/gcc/pic32mx/8.3.1/../../../../pic32mx/lib/fpu64/libc-musl.a(__secs_to_tm.o)
 .debug_line    0x000000000001c806       0xcb /opt/microchip/xc32/v4.35/bin/bin/../../lib/gcc/pic32mx/8.3.1/../../../../pic32mx/lib/fpu64/libc-musl.a(__io_fmt_needed.o)
 .debug_line    0x000000000001c8d1      0x1b3 /opt/microchip/xc32/v4.35/bin/bin/../../lib/gcc/pic32mx/8.3.1/../../../../pic32mx/lib/fpu64/libc-musl.a(__pop_float.o)
 .debug_line    0x000000000001ca84      0x252 /opt/microchip/xc32/v4.35/bin/bin/../../lib/gcc/pic32mx/8.3.1/../../../../pic32mx/lib/fpu64/libc-musl.a(__pop_int.o)
 .debug_line    0x000000000001ccd6      0x20b /opt/microchip/xc32/v4.35/bin/bin/../../lib/gcc/pic32mx/8.3.1/../../../../pic32mx/lib/fpu64/libc-musl.a(__pop_ptr.o)
 .debug_line    0x000000000001cee1      0x702 /opt/microchip/xc32/v4.35/bin/bin/../../lib/gcc/pic32mx/8.3.1/../../../../pic32mx/lib/fpu64/libc-musl.a(__printf_core.o)
 .debug_line    0x000000000001d5e3      0x172 /opt/microchip/xc32/v4.35/bin/bin/../../lib/gcc/pic32mx/8.3.1/../../../../pic32mx/lib/fpu64/libc-musl.a(atoi.o)
 .debug_line    0x000000000001d755       0xc9 /opt/microchip/xc32/v4.35/bin/bin/../../lib/gcc/pic32mx/8.3.1/../../../../pic32mx/lib/fpu64/libc-musl.a(__month_to_secs.o)
 .debug_line    0x000000000001d81e      0x1b9 /opt/microchip/xc32/v4.35/bin/bin/../../lib/gcc/pic32mx/8.3.1/../../../../pic32mx/lib/fpu64/libc-musl.a(tolower.o)
 .debug_line    0x000000000001d9d7      0x668 /opt/microchip/xc32/v4.35/bin/bin/../../lib/gcc/pic32mx/8.3.1/../../../../pic32mx/lib/fpu64/libc-musl.a(__fmt_a.o)
 .debug_line    0x000000000001e03f      0x256 /opt/microchip/xc32/v4.35/bin/bin/../../lib/gcc/pic32mx/8.3.1/../../../../pic32mx/lib/fpu64/libc-musl.a(__fmt_d.o)
 .debug_line    0x000000000001e295      0x6d0 /opt/microchip/xc32/v4.35/bin/bin/../../lib/gcc/pic32mx/8.3.1/../../../../pic32mx/lib/fpu64/libc-musl.a(__fmt_fp.o)
 .debug_line    0x000000000001e965      0x207 /opt/microchip/xc32/v4.35/bin/bin/../../lib/gcc/pic32mx/8.3.1/../../../../pic32mx/lib/fpu64/libc-musl.a(__fmt_o.o)
 .debug_line    0x000000000001eb6c      0x250 /opt/microchip/xc32/v4.35/bin/bin/../../lib/gcc/pic32mx/8.3.1/../../../../pic32mx/lib/fpu64/libc-musl.a(__fmt_s.o)
 .debug_line    0x000000000001edbc      0x1e0 /opt/microchip/xc32/v4.35/bin/bin/../../lib/gcc/pic32mx/8.3.1/../../../../pic32mx/lib/fpu64/libc-musl.a(__fmt_u.o)
 .debug_line    0x000000000001ef9c      0x323 /opt/microchip/xc32/v4.35/bin/bin/../../lib/gcc/pic32mx/8.3.1/../../../../pic32mx/lib/fpu64/libc-musl.a(__fmt_x.o)
 .debug_line    0x000000000001f2bf       0xaf /opt/microchip/xc32/v4.35/bin/bin/../../lib/gcc/pic32mx/8.3.1/../../../../pic32mx/lib/fpu64/libc-musl.a(strcpy.o)
 .debug_line    0x000000000001f36e      0x1b9 /opt/microchip/xc32/v4.35/bin/bin/../../lib/gcc/pic32mx/8.3.1/../../../../pic32mx/lib/fpu64/libc-musl.a(toupper.o)
 .debug_line    0x000000000001f527      0x23a /opt/microchip/xc32/v4.35/bin/bin/../../lib/gcc/pic32mx/8.3.1/../../../../pic32mx/lib/fpu64/libc-musl.a(__cvt_u.o)
 .debug_line    0x000000000001f761       0xc1 /opt/microchip/xc32/v4.35/bin/bin/../../lib/gcc/pic32mx/8.3.1/../../../../pic32mx/lib/fpu64/libc-musl.a(stpcpy.o)
 .debug_line    0x000000000001f822      0x18a /opt/microchip/xc32/v4.35/bin/bin/../../lib/gcc/pic32mx/8.3.1/../../../../pic32mx/lib/fpu64/libm-musl.a(floor.o)
 .debug_line    0x000000000001f9ac      0x68a /opt/microchip/xc32/v4.35/bin/bin/../../lib/gcc/pic32mx/8.3.1/../../../../pic32mx/lib/fpu64/libm-musl.a(fma.o)
 .debug_line    0x0000000000020036      0x18a /opt/microchip/xc32/v4.35/bin/bin/../../lib/gcc/pic32mx/8.3.1/../../../../pic32mx/lib/fpu64/libm-musl.a(scalbn.o)
 .debug_line    0x00000000000201c0       0xdf /opt/microchip/xc32/v4.35/bin/bin/../../lib/gcc/pic32mx/8.3.1/fpu64/libgcc.a(_lshrdi3.o)
 .debug_line    0x000000000002029f       0xe0 /opt/microchip/xc32/v4.35/bin/bin/../../lib/gcc/pic32mx/8.3.1/fpu64/libgcc.a(_ashldi3.o)
 .debug_line    0x000000000002037f      0x32a /opt/microchip/xc32/v4.35/bin/bin/../../lib/gcc/pic32mx/8.3.1/fpu64/libgcc.a(_divdi3.o)
 .debug_line    0x00000000000206a9      0x361 /opt/microchip/xc32/v4.35/bin/bin/../../lib/gcc/pic32mx/8.3.1/fpu64/libgcc.a(_moddi3.o)
 .debug_line    0x0000000000020a0a      0x312 /opt/microchip/xc32/v4.35/bin/bin/../../lib/gcc/pic32mx/8.3.1/fpu64/libgcc.a(_umoddi3.o)
 .debug_line    0x0000000000020d1c        0x0 /opt/microchip/xc32/v4.35/bin/bin/../../lib/gcc/pic32mx/8.3.1/../../../../pic32mx/lib/fpu64/libpic32.a(errno.o)

.debug_frame    0x0000000000000000     0x9384
 *.elf(.debug_frame)
 *(.debug_frame)
 .debug_frame   0x0000000000000000      0x228 build/default/production/_ext/1529399856/osal_freertos.o
 .debug_frame   0x0000000000000228       0x30 build/default/production/_ext/60165520/plib_clk.o
 .debug_frame   0x0000000000000258      0x170 build/default/production/_ext/1249264884/plib_coretimer.o
 .debug_frame   0x00000000000003c8      0x15c build/default/production/_ext/1865200349/plib_evic.o
 .debug_frame   0x0000000000000524      0x1fc build/default/production/_ext/1865254177/plib_gpio.o
 .debug_frame   0x0000000000000720      0x174 build/default/production/_ext/60181895/plib_tmr9.o
 .debug_frame   0x0000000000000894      0x174 build/default/production/_ext/60181895/plib_tmr8.o
 .debug_frame   0x0000000000000a08      0x40c build/default/production/_ext/1865657120/plib_uart2.o
 .debug_frame   0x0000000000000e14       0x50 build/default/production/_ext/163028504/xc32_monitor.o
 .debug_frame   0x0000000000000e64      0x1b4 build/default/production/_ext/1832805299/sys_console_uart.o
 .debug_frame   0x0000000000001018      0x204 build/default/production/_ext/1832805299/sys_console.o
 .debug_frame   0x000000000000121c       0xd0 build/default/production/_ext/944882569/sys_debug.o
 .debug_frame   0x00000000000012ec       0x74 build/default/production/_ext/14461671/sys_dma.o
 .debug_frame   0x0000000000001360       0xc4 build/default/production/_ext/1881668453/sys_int.o
 .debug_frame   0x0000000000001424      0x5bc build/default/production/_ext/101884895/sys_time.o
 .debug_frame   0x00000000000019e0       0xac build/default/production/_ext/1171490990/freertos_hooks.o
 .debug_frame   0x0000000000001a8c      0x19c build/default/production/_ext/1171490990/interrupts.o
 .debug_frame   0x0000000000001c28       0x6c build/default/production/_ext/1171490990/tasks.o
 .debug_frame   0x0000000000001c94       0x34 build/default/production/_ext/1171490990/initialization.o
 .debug_frame   0x0000000000001cc8       0x80 build/default/production/_ext/1171490990/exceptions.o
 .debug_frame   0x0000000000001d48       0x94 build/default/production/_ext/1665200909/heap_1.o
 .debug_frame   0x0000000000001ddc      0x120 build/default/production/_ext/951553246/port.o
 .debug_frame   0x0000000000001efc      0x3a8 build/default/production/_ext/404212886/queue.o
 .debug_frame   0x00000000000022a4      0x2f4 build/default/production/_ext/404212886/stream_buffer.o
 .debug_frame   0x0000000000002598      0x174 build/default/production/_ext/404212886/event_groups.o
 .debug_frame   0x000000000000270c      0x728 build/default/production/_ext/404212886/FreeRTOS_tasks.o
 .debug_frame   0x0000000000002e34       0xb0 build/default/production/_ext/404212886/list.o
 .debug_frame   0x0000000000002ee4       0x54 build/default/production/_ext/1360937237/app.o
 .debug_frame   0x0000000000002f38       0x50 build/default/production/_ext/1360937237/main.o
 .debug_frame   0x0000000000002f88      0x37c build/default/production/_ext/1954180691/wdrv_winc.o
 .debug_frame   0x0000000000003304      0x22c build/default/production/_ext/1865161661/plib_dmac.o
 .debug_frame   0x0000000000003530      0x10c build/default/production/_ext/1954180691/wdrv_winc_nvm.o
 .debug_frame   0x000000000000363c      0x12c build/default/production/_ext/651226651/event.o
 .debug_frame   0x0000000000003768       0xe8 build/default/production/_ext/1954180691/wdrv_winc_bssctx.o
 .debug_frame   0x0000000000003850      0x228 build/default/production/_ext/651226651/gatt_client.o
 .debug_frame   0x0000000000003a78      0x168 build/default/production/_ext/298189674/plib_spi1_master.o
 .debug_frame   0x0000000000003be0       0x7c build/default/production/_ext/1954180691/wdrv_winc_powersave.o
 .debug_frame   0x0000000000003c5c       0xe8 build/default/production/_ext/1954180691/wdrv_winc_systime.o
 .debug_frame   0x0000000000003d44      0x2dc build/default/production/_ext/651226651/gattc_task.o
 .debug_frame   0x0000000000004020      0x260 build/default/production/_ext/1667573777/m2m_hif.o
 .debug_frame   0x0000000000004280      0x104 build/default/production/_ext/1667573777/m2m_periph.o
 .debug_frame   0x0000000000004384       0x7c build/default/production/_ext/1068697685/wdrv_winc_eint.o
 .debug_frame   0x0000000000004400       0x58 build/default/production/_ext/651226651/interface.o
 .debug_frame   0x0000000000004458      0x400 build/default/production/_ext/651226651/gapc_task.o
 .debug_frame   0x0000000000004858       0x50 build/default/production/_ext/651226651/error.o
 .debug_frame   0x00000000000048a8       0xc4 build/default/production/_ext/1954180691/wdrv_winc_sta.o
 .debug_frame   0x000000000000496c      0x150 build/default/production/_ext/651226651/wifiprov_task.o
 .debug_frame   0x0000000000004abc      0x1e4 build/default/production/_ext/1908349716/spi_flash.o
 .debug_frame   0x0000000000004ca0      0x3bc build/default/production/_ext/2094051164/socket.o
 .debug_frame   0x000000000000505c       0xe8 build/default/production/_ext/1697030576/wdrv_winc_spi.o
 .debug_frame   0x0000000000005144      0xb04 build/default/production/_ext/1667573777/m2m_wifi.o
 .debug_frame   0x0000000000005c48      0x1dc build/default/production/_ext/1667573777/nmbus.o
 .debug_frame   0x0000000000005e24       0xa0 build/default/production/_ext/1954180691/wdrv_winc_wps.o
 .debug_frame   0x0000000000005ec4      0x2fc build/default/production/_ext/651226651/gatt_server.o
 .debug_frame   0x00000000000061c0       0x94 build/default/production/_ext/1954180691/wdrv_winc_httpprovctx.o
 .debug_frame   0x0000000000006254       0x7c build/default/production/_ext/1954180691/wdrv_winc_softap.o
 .debug_frame   0x00000000000062d0      0x348 build/default/production/_ext/1667573777/nmspi.o
 .debug_frame   0x0000000000006618       0x9c build/default/production/_ext/1954180691/wdrv_winc_ble.o
 .debug_frame   0x00000000000066b4      0x174 build/default/production/_ext/1667573777/nmdrv.o
 .debug_frame   0x0000000000006828       0x34 build/default/production/_ext/2094051164/inet_addr.o
 .debug_frame   0x000000000000685c       0xe8 build/default/production/_ext/1667573777/m2m_ota.o
 .debug_frame   0x0000000000006944       0x34 build/default/production/_ext/2018374705/wdrv_winc_osal.o
 .debug_frame   0x0000000000006978      0x174 build/default/production/_ext/1954180691/wdrv_winc_authctx.o
 .debug_frame   0x0000000000006aec      0x130 build/default/production/_ext/1306418660/platform.o
 .debug_frame   0x0000000000006c1c      0x150 build/default/production/_ext/1954180691/wdrv_winc_bssfind.o
 .debug_frame   0x0000000000006d6c       0xa0 build/default/production/_ext/651226651/gattm_task.o
 .debug_frame   0x0000000000006e0c       0x7c build/default/production/_ext/1954180691/wdrv_winc_custie.o
 .debug_frame   0x0000000000006e88      0x130 build/default/production/_ext/1954180691/wdrv_winc_enterprise.o
 .debug_frame   0x0000000000006fb8       0xa0 build/default/production/_ext/651226651/htpt.o
 .debug_frame   0x0000000000007058       0x34 build/default/production/_ext/2094051164/inet_ntop.o
 .debug_frame   0x000000000000708c       0x9c build/default/production/_ext/1636284884/nm_common.o
 .debug_frame   0x0000000000007128      0x198 build/default/production/_ext/1667573777/m2m_flash.o
 .debug_frame   0x00000000000072c0      0x228 build/default/production/_ext/651226651/gapm_task.o
 .debug_frame   0x00000000000074e8      0x14c build/default/production/_ext/1954180691/wdrv_winc_ssl.o
 .debug_frame   0x0000000000007634      0x130 build/default/production/_ext/651226651/dbg_task.o
 .debug_frame   0x0000000000007764      0x434 build/default/production/_ext/2070931557/drv_spi.o
 .debug_frame   0x0000000000007b98      0x250 build/default/production/_ext/1954180691/wdrv_winc_socket.o
 .debug_frame   0x0000000000007de8      0x3d4 build/default/production/_ext/651226651/gap.o
 .debug_frame   0x00000000000081bc      0x150 build/default/production/_ext/1667573777/m2m_ssl.o
 .debug_frame   0x000000000000830c       0x90 build/default/production/_ext/1068697685/wdrv_winc_gpio.o
 .debug_frame   0x000000000000839c       0xc4 build/default/production/_ext/651226651/security.o
 .debug_frame   0x0000000000008460       0xc4 build/default/production/_ext/1954180691/wdrv_winc_assoc.o
 .debug_frame   0x0000000000008524      0x188 build/default/production/_ext/651226651/htpt_task.o
 .debug_frame   0x00000000000086ac      0x354 build/default/production/_ext/1667573777/nmasic.o
 .debug_frame   0x0000000000008a00       0xa4 build/default/production/example.o
 .debug_frame   0x0000000000008aa4       0x20 /opt/microchip/xc32/v4.35/bin/bin/../../lib/gcc/pic32mx/8.3.1/fpu64/libgcc.a(_udivdi3.o)
 .debug_frame   0x0000000000008ac4       0x20 /opt/microchip/xc32/v4.35/bin/bin/../../lib/gcc/pic32mx/8.3.1/../../../../pic32mx/lib/fpu64/libpic32.a(default-on-reset.o)
 .debug_frame   0x0000000000008ae4       0x20 /opt/microchip/xc32/v4.35/bin/bin/../../lib/gcc/pic32mx/8.3.1/../../../../pic32mx/lib/fpu64/libpic32.a(default-on-bootstrap.o)
 .debug_frame   0x0000000000008b04       0x20 /opt/microchip/xc32/v4.35/bin/bin/../../lib/gcc/pic32mx/8.3.1/../../../../pic32mx/lib/fpu64/libpic32.a(defaultinterrupt.o)
 .debug_frame   0x0000000000008b24       0x38 /opt/microchip/xc32/v4.35/bin/bin/../../lib/gcc/pic32mx/8.3.1/../../../../pic32mx/lib/fpu64/libc-musl.a(vsnprintf.o)
 .debug_frame   0x0000000000008b5c       0x2c /opt/microchip/xc32/v4.35/bin/bin/../../lib/gcc/pic32mx/8.3.1/../../../../pic32mx/lib/fpu64/libc-musl.a(sprintf.o)
 .debug_frame   0x0000000000008b88       0x2c /opt/microchip/xc32/v4.35/bin/bin/../../lib/gcc/pic32mx/8.3.1/../../../../pic32mx/lib/fpu64/libc-musl.a(vsprintf.o)
 .debug_frame   0x0000000000008bb4       0x2c /opt/microchip/xc32/v4.35/bin/bin/../../lib/gcc/pic32mx/8.3.1/../../../../pic32mx/lib/fpu64/libc-musl.a(strchr.o)
 .debug_frame   0x0000000000008be0       0x30 /opt/microchip/xc32/v4.35/bin/bin/../../lib/gcc/pic32mx/8.3.1/../../../../pic32mx/lib/fpu64/libc-musl.a(strchrnul.o)
 .debug_frame   0x0000000000008c10       0x30 /opt/microchip/xc32/v4.35/bin/bin/../../lib/gcc/pic32mx/8.3.1/../../../../pic32mx/lib/fpu64/libc-musl.a(strnlen.o)
 .debug_frame   0x0000000000008c40       0x2c /opt/microchip/xc32/v4.35/bin/bin/../../lib/gcc/pic32mx/8.3.1/../../../../pic32mx/lib/fpu64/libc-musl.a(gmtime.o)
 .debug_frame   0x0000000000008c6c       0x30 /opt/microchip/xc32/v4.35/bin/bin/../../lib/gcc/pic32mx/8.3.1/../../../../pic32mx/lib/fpu64/libc-musl.a(gmtime_r.o)
 .debug_frame   0x0000000000008c9c       0x30 /opt/microchip/xc32/v4.35/bin/bin/../../lib/gcc/pic32mx/8.3.1/../../../../pic32mx/lib/fpu64/libc-musl.a(mktime.o)
 .debug_frame   0x0000000000008ccc       0x48 /opt/microchip/xc32/v4.35/bin/bin/../../lib/gcc/pic32mx/8.3.1/../../../../pic32mx/lib/fpu64/libc-musl.a(vfprintf.o)
 .debug_frame   0x0000000000008d14       0x20 /opt/microchip/xc32/v4.35/bin/bin/../../lib/gcc/pic32mx/8.3.1/../../../../pic32mx/lib/fpu64/libc-musl.a(memchr.o)
 .debug_frame   0x0000000000008d34       0x34 /opt/microchip/xc32/v4.35/bin/bin/../../lib/gcc/pic32mx/8.3.1/../../../../pic32mx/lib/fpu64/libc-musl.a(__tm_to_secs.o)
 .debug_frame   0x0000000000008d68       0x34 /opt/microchip/xc32/v4.35/bin/bin/../../lib/gcc/pic32mx/8.3.1/../../../../pic32mx/lib/fpu64/libc-musl.a(__year_to_secs.o)
 .debug_frame   0x0000000000008d9c       0x4c /opt/microchip/xc32/v4.35/bin/bin/../../lib/gcc/pic32mx/8.3.1/../../../../pic32mx/lib/fpu64/libc-musl.a(__secs_to_tm.o)
 .debug_frame   0x0000000000008de8       0x2c /opt/microchip/xc32/v4.35/bin/bin/../../lib/gcc/pic32mx/8.3.1/../../../../pic32mx/lib/fpu64/libc-musl.a(__io_fmt_needed.o)
 .debug_frame   0x0000000000008e14       0x20 /opt/microchip/xc32/v4.35/bin/bin/../../lib/gcc/pic32mx/8.3.1/../../../../pic32mx/lib/fpu64/libc-musl.a(__pop_float.o)
 .debug_frame   0x0000000000008e34       0x20 /opt/microchip/xc32/v4.35/bin/bin/../../lib/gcc/pic32mx/8.3.1/../../../../pic32mx/lib/fpu64/libc-musl.a(__pop_int.o)
 .debug_frame   0x0000000000008e54       0x20 /opt/microchip/xc32/v4.35/bin/bin/../../lib/gcc/pic32mx/8.3.1/../../../../pic32mx/lib/fpu64/libc-musl.a(__pop_ptr.o)
 .debug_frame   0x0000000000008e74       0xc8 /opt/microchip/xc32/v4.35/bin/bin/../../lib/gcc/pic32mx/8.3.1/../../../../pic32mx/lib/fpu64/libc-musl.a(__printf_core.o)
 .debug_frame   0x0000000000008f3c       0x20 /opt/microchip/xc32/v4.35/bin/bin/../../lib/gcc/pic32mx/8.3.1/../../../../pic32mx/lib/fpu64/libc-musl.a(atoi.o)
 .debug_frame   0x0000000000008f5c       0x20 /opt/microchip/xc32/v4.35/bin/bin/../../lib/gcc/pic32mx/8.3.1/../../../../pic32mx/lib/fpu64/libc-musl.a(__month_to_secs.o)
 .debug_frame   0x0000000000008f7c       0x3c /opt/microchip/xc32/v4.35/bin/bin/../../lib/gcc/pic32mx/8.3.1/../../../../pic32mx/lib/fpu64/libc-musl.a(tolower.o)
 .debug_frame   0x0000000000008fb8       0x54 /opt/microchip/xc32/v4.35/bin/bin/../../lib/gcc/pic32mx/8.3.1/../../../../pic32mx/lib/fpu64/libc-musl.a(__fmt_a.o)
 .debug_frame   0x000000000000900c       0x38 /opt/microchip/xc32/v4.35/bin/bin/../../lib/gcc/pic32mx/8.3.1/../../../../pic32mx/lib/fpu64/libc-musl.a(__fmt_d.o)
 .debug_frame   0x0000000000009044       0x4c /opt/microchip/xc32/v4.35/bin/bin/../../lib/gcc/pic32mx/8.3.1/../../../../pic32mx/lib/fpu64/libc-musl.a(__fmt_fp.o)
 .debug_frame   0x0000000000009090       0x34 /opt/microchip/xc32/v4.35/bin/bin/../../lib/gcc/pic32mx/8.3.1/../../../../pic32mx/lib/fpu64/libc-musl.a(__fmt_o.o)
 .debug_frame   0x00000000000090c4       0x34 /opt/microchip/xc32/v4.35/bin/bin/../../lib/gcc/pic32mx/8.3.1/../../../../pic32mx/lib/fpu64/libc-musl.a(__fmt_s.o)
 .debug_frame   0x00000000000090f8       0x34 /opt/microchip/xc32/v4.35/bin/bin/../../lib/gcc/pic32mx/8.3.1/../../../../pic32mx/lib/fpu64/libc-musl.a(__fmt_u.o)
 .debug_frame   0x000000000000912c       0x40 /opt/microchip/xc32/v4.35/bin/bin/../../lib/gcc/pic32mx/8.3.1/../../../../pic32mx/lib/fpu64/libc-musl.a(__fmt_x.o)
 .debug_frame   0x000000000000916c       0x2c /opt/microchip/xc32/v4.35/bin/bin/../../lib/gcc/pic32mx/8.3.1/../../../../pic32mx/lib/fpu64/libc-musl.a(strcpy.o)
 .debug_frame   0x0000000000009198       0x3c /opt/microchip/xc32/v4.35/bin/bin/../../lib/gcc/pic32mx/8.3.1/../../../../pic32mx/lib/fpu64/libc-musl.a(toupper.o)
 .debug_frame   0x00000000000091d4       0x40 /opt/microchip/xc32/v4.35/bin/bin/../../lib/gcc/pic32mx/8.3.1/../../../../pic32mx/lib/fpu64/libc-musl.a(__cvt_u.o)
 .debug_frame   0x0000000000009214       0x20 /opt/microchip/xc32/v4.35/bin/bin/../../lib/gcc/pic32mx/8.3.1/../../../../pic32mx/lib/fpu64/libc-musl.a(stpcpy.o)
 .debug_frame   0x0000000000009234       0x2c /opt/microchip/xc32/v4.35/bin/bin/../../lib/gcc/pic32mx/8.3.1/../../../../pic32mx/lib/fpu64/libm-musl.a(floor.o)
 .debug_frame   0x0000000000009260       0x64 /opt/microchip/xc32/v4.35/bin/bin/../../lib/gcc/pic32mx/8.3.1/../../../../pic32mx/lib/fpu64/libm-musl.a(fma.o)
 .debug_frame   0x00000000000092c4       0x20 /opt/microchip/xc32/v4.35/bin/bin/../../lib/gcc/pic32mx/8.3.1/../../../../pic32mx/lib/fpu64/libm-musl.a(scalbn.o)
 .debug_frame   0x00000000000092e4       0x20 /opt/microchip/xc32/v4.35/bin/bin/../../lib/gcc/pic32mx/8.3.1/fpu64/libgcc.a(_lshrdi3.o)
 .debug_frame   0x0000000000009304       0x20 /opt/microchip/xc32/v4.35/bin/bin/../../lib/gcc/pic32mx/8.3.1/fpu64/libgcc.a(_ashldi3.o)
 .debug_frame   0x0000000000009324       0x20 /opt/microchip/xc32/v4.35/bin/bin/../../lib/gcc/pic32mx/8.3.1/fpu64/libgcc.a(_divdi3.o)
 .debug_frame   0x0000000000009344       0x20 /opt/microchip/xc32/v4.35/bin/bin/../../lib/gcc/pic32mx/8.3.1/fpu64/libgcc.a(_moddi3.o)
 .debug_frame   0x0000000000009364       0x20 /opt/microchip/xc32/v4.35/bin/bin/../../lib/gcc/pic32mx/8.3.1/fpu64/libgcc.a(_umoddi3.o)

.debug_str      0x0000000000000000    0x4db25
 *.elf(.debug_str)
 *(.debug_str)
 .debug_str     0x0000000000000000      0x5e8 build/default/production/_ext/1529399856/osal_freertos.o
 .debug_str     0x00000000000005e8      0x3bd build/default/production/_ext/60165520/plib_clk.o
 .debug_str     0x00000000000009a5      0x542 build/default/production/_ext/1249264884/plib_coretimer.o
 .debug_str     0x0000000000000ee7      0x466 build/default/production/_ext/1865200349/plib_evic.o
 .debug_str     0x000000000000134d      0x6fe build/default/production/_ext/1865254177/plib_gpio.o
 .debug_str     0x0000000000001a4b      0x558 build/default/production/_ext/60181895/plib_tmr9.o
 .debug_str     0x0000000000001fa3      0x558 build/default/production/_ext/60181895/plib_tmr8.o
 .debug_str     0x00000000000024fb      0x9de build/default/production/_ext/1865657120/plib_uart2.o
 .debug_str     0x0000000000002ed9      0x2a8 build/default/production/_ext/163028504/xc32_monitor.o
 .debug_str     0x0000000000003181      0xb2b build/default/production/_ext/1832805299/sys_console_uart.o
 .debug_str     0x0000000000003cac      0xa71 build/default/production/_ext/1832805299/sys_console.o
 .debug_str     0x000000000000471d      0x561 build/default/production/_ext/944882569/sys_debug.o
 .debug_str     0x0000000000004c7e      0x62a build/default/production/_ext/14461671/sys_dma.o
 .debug_str     0x00000000000052a8      0x39a build/default/production/_ext/1881668453/sys_int.o
 .debug_str     0x0000000000005642      0xd0b build/default/production/_ext/101884895/sys_time.o
 .debug_str     0x000000000000634d      0x3b1 build/default/production/_ext/1171490990/freertos_hooks.o
 .debug_str     0x00000000000066fe      0x3a9 build/default/production/_ext/1171490990/interrupts.o
 .debug_str     0x0000000000006aa7      0x4fe build/default/production/_ext/1171490990/tasks.o
 .debug_str     0x0000000000006fa5     0x19dc build/default/production/_ext/1171490990/initialization.o
 .debug_str     0x0000000000008981       0x86 build/default/production/_ext/1171490990/interrupts_a.o
 .debug_str     0x0000000000008a07      0x434 build/default/production/_ext/1171490990/exceptions.o
 .debug_str     0x0000000000008e3b      0x39a build/default/production/_ext/1665200909/heap_1.o
 .debug_str     0x00000000000091d5       0xab build/default/production/_ext/951553246/port_asm.o
 .debug_str     0x0000000000009280      0x757 build/default/production/_ext/951553246/port.o
 .debug_str     0x00000000000099d7      0x2f8 build/default/production/_ext/404212886/croutine.o
 .debug_str     0x0000000000009ccf      0x938 build/default/production/_ext/404212886/queue.o
 .debug_str     0x000000000000a607      0x2f6 build/default/production/_ext/404212886/timers.o
 .debug_str     0x000000000000a8fd      0x8c4 build/default/production/_ext/404212886/stream_buffer.o
 .debug_str     0x000000000000b1c1      0x65f build/default/production/_ext/404212886/event_groups.o
 .debug_str     0x000000000000b820      0xf7d build/default/production/_ext/404212886/FreeRTOS_tasks.o
 .debug_str     0x000000000000c79d      0x437 build/default/production/_ext/404212886/list.o
 .debug_str     0x000000000000cbd4      0x827 build/default/production/_ext/1360937237/app.o
 .debug_str     0x000000000000d3fb      0x395 build/default/production/_ext/1360937237/main.o
 .debug_str     0x000000000000d790     0x31a9 build/default/production/_ext/1954180691/wdrv_winc.o
 .debug_str     0x0000000000010939      0x932 build/default/production/_ext/1865161661/plib_dmac.o
 .debug_str     0x000000000001126b     0x1d9e build/default/production/_ext/1954180691/wdrv_winc_nvm.o
 .debug_str     0x0000000000013009     0x1fd4 build/default/production/_ext/651226651/event.o
 .debug_str     0x0000000000014fdd      0x807 build/default/production/_ext/1954180691/wdrv_winc_bssctx.o
 .debug_str     0x00000000000157e4      0x8ab build/default/production/_ext/651226651/gatt_client.o
 .debug_str     0x000000000001608f      0x6b1 build/default/production/_ext/298189674/plib_spi1_master.o
 .debug_str     0x0000000000016740     0x1665 build/default/production/_ext/1954180691/wdrv_winc_powersave.o
 .debug_str     0x0000000000017da5     0x1743 build/default/production/_ext/1954180691/wdrv_winc_systime.o
 .debug_str     0x00000000000194e8     0x163b build/default/production/_ext/651226651/gattc_task.o
 .debug_str     0x000000000001ab23     0x1312 build/default/production/_ext/1667573777/m2m_hif.o
 .debug_str     0x000000000001be35      0x463 build/default/production/_ext/1667573777/m2m_periph.o
 .debug_str     0x000000000001c298      0x406 build/default/production/_ext/1068697685/wdrv_winc_eint.o
 .debug_str     0x000000000001c69e      0x3a2 build/default/production/_ext/651226651/interface.o
 .debug_str     0x000000000001ca40     0x1b2b build/default/production/_ext/651226651/gapc_task.o
 .debug_str     0x000000000001e56b      0x6ed build/default/production/_ext/651226651/error.o
 .debug_str     0x000000000001ec58     0x19a9 build/default/production/_ext/1954180691/wdrv_winc_sta.o
 .debug_str     0x0000000000020601      0x9a3 build/default/production/_ext/651226651/wifiprov_task.o
 .debug_str     0x0000000000020fa4      0x511 build/default/production/_ext/1908349716/spi_flash.o
 .debug_str     0x00000000000214b5      0xf94 build/default/production/_ext/2094051164/socket.o
 .debug_str     0x0000000000022449     0x1136 build/default/production/_ext/1697030576/wdrv_winc_spi.o
 .debug_str     0x000000000002357f     0x2b49 build/default/production/_ext/1667573777/m2m_wifi.o
 .debug_str     0x00000000000260c8      0x511 build/default/production/_ext/1667573777/nmbus.o
 .debug_str     0x00000000000265d9     0x161c build/default/production/_ext/1954180691/wdrv_winc_wps.o
 .debug_str     0x0000000000027bf5     0x123b build/default/production/_ext/651226651/gatt_server.o
 .debug_str     0x0000000000028e30      0x869 build/default/production/_ext/1954180691/wdrv_winc_httpprovctx.o
 .debug_str     0x0000000000029699     0x17a0 build/default/production/_ext/1954180691/wdrv_winc_softap.o
 .debug_str     0x000000000002ae39      0x7e8 build/default/production/_ext/1667573777/nmspi.o
 .debug_str     0x000000000002b621     0x1b12 build/default/production/_ext/1954180691/wdrv_winc_ble.o
 .debug_str     0x000000000002d133      0x656 build/default/production/_ext/1667573777/nmdrv.o
 .debug_str     0x000000000002d789      0x332 build/default/production/_ext/2094051164/inet_addr.o
 .debug_str     0x000000000002dabb      0x75e build/default/production/_ext/1667573777/m2m_ota.o
 .debug_str     0x000000000002e219      0x324 build/default/production/_ext/2018374705/wdrv_winc_osal.o
 .debug_str     0x000000000002e53d      0xbe6 build/default/production/_ext/1954180691/wdrv_winc_authctx.o
 .debug_str     0x000000000002f123      0x703 build/default/production/_ext/1306418660/platform.o
 .debug_str     0x000000000002f826     0x1a08 build/default/production/_ext/1954180691/wdrv_winc_bssfind.o
 .debug_str     0x000000000003122e      0x9f0 build/default/production/_ext/651226651/gattm_task.o
 .debug_str     0x0000000000031c1e      0x616 build/default/production/_ext/1954180691/wdrv_winc_custie.o
 .debug_str     0x0000000000032234     0x1854 build/default/production/_ext/1954180691/wdrv_winc_enterprise.o
 .debug_str     0x0000000000033a88      0x88e build/default/production/_ext/651226651/htpt.o
 .debug_str     0x0000000000034316      0x344 build/default/production/_ext/2094051164/inet_ntop.o
 .debug_str     0x000000000003465a      0x374 build/default/production/_ext/1636284884/nm_common.o
 .debug_str     0x00000000000349ce      0x956 build/default/production/_ext/1667573777/m2m_flash.o
 .debug_str     0x0000000000035324     0x1ac9 build/default/production/_ext/651226651/gapm_task.o
 .debug_str     0x0000000000036ded     0x1c09 build/default/production/_ext/1954180691/wdrv_winc_ssl.o
 .debug_str     0x00000000000389f6      0xc38 build/default/production/_ext/651226651/dbg_task.o
 .debug_str     0x000000000003962e     0x1818 build/default/production/_ext/2070931557/drv_spi.o
 .debug_str     0x000000000003ae46     0x17d2 build/default/production/_ext/1954180691/wdrv_winc_socket.o
 .debug_str     0x000000000003c618     0x1ca3 build/default/production/_ext/651226651/gap.o
 .debug_str     0x000000000003e2bb      0x9a0 build/default/production/_ext/1667573777/m2m_ssl.o
 .debug_str     0x000000000003ec5b      0x3a6 build/default/production/_ext/1068697685/wdrv_winc_gpio.o
 .debug_str     0x000000000003f001      0xaed build/default/production/_ext/651226651/security.o
 .debug_str     0x000000000003faee     0x1607 build/default/production/_ext/1954180691/wdrv_winc_assoc.o
 .debug_str     0x00000000000410f5      0xafa build/default/production/_ext/651226651/htpt_task.o
 .debug_str     0x0000000000041bef      0x632 build/default/production/_ext/1667573777/nmasic.o
 .debug_str     0x0000000000042221     0x10b7 build/default/production/example.o
 .debug_str     0x00000000000432d8      0x40b /opt/microchip/xc32/v4.35/bin/bin/../../lib/gcc/pic32mx/8.3.1/fpu64/libgcc.a(_udivdi3.o)
 .debug_str     0x00000000000436e3      0x355 /opt/microchip/xc32/v4.35/bin/bin/../../lib/gcc/pic32mx/8.3.1/../../../../pic32mx/lib/fpu64/libpic32.a(default-on-reset.o)
 .debug_str     0x0000000000043a38      0x35d /opt/microchip/xc32/v4.35/bin/bin/../../lib/gcc/pic32mx/8.3.1/../../../../pic32mx/lib/fpu64/libpic32.a(default-on-bootstrap.o)
 .debug_str     0x0000000000043d95      0x36f /opt/microchip/xc32/v4.35/bin/bin/../../lib/gcc/pic32mx/8.3.1/../../../../pic32mx/lib/fpu64/libpic32.a(defaultinterrupt.o)
 .debug_str     0x0000000000044104      0x46b /opt/microchip/xc32/v4.35/bin/bin/../../lib/gcc/pic32mx/8.3.1/../../../../pic32mx/lib/fpu64/libc-musl.a(vsnprintf.o)
 .debug_str     0x000000000004456f      0x32b /opt/microchip/xc32/v4.35/bin/bin/../../lib/gcc/pic32mx/8.3.1/../../../../pic32mx/lib/fpu64/libc-musl.a(sprintf.o)
 .debug_str     0x000000000004489a      0x32e /opt/microchip/xc32/v4.35/bin/bin/../../lib/gcc/pic32mx/8.3.1/../../../../pic32mx/lib/fpu64/libc-musl.a(vsprintf.o)
 .debug_str     0x0000000000044bc8      0x30a /opt/microchip/xc32/v4.35/bin/bin/../../lib/gcc/pic32mx/8.3.1/../../../../pic32mx/lib/fpu64/libc-musl.a(strchr.o)
 .debug_str     0x0000000000044ed2      0x383 /opt/microchip/xc32/v4.35/bin/bin/../../lib/gcc/pic32mx/8.3.1/../../../../pic32mx/lib/fpu64/libc-musl.a(strchrnul.o)
 .debug_str     0x0000000000045255      0x30e /opt/microchip/xc32/v4.35/bin/bin/../../lib/gcc/pic32mx/8.3.1/../../../../pic32mx/lib/fpu64/libc-musl.a(strnlen.o)
 .debug_str     0x0000000000045563      0x385 /opt/microchip/xc32/v4.35/bin/bin/../../lib/gcc/pic32mx/8.3.1/../../../../pic32mx/lib/fpu64/libc-musl.a(gmtime.o)
 .debug_str     0x00000000000458e8      0x3a6 /opt/microchip/xc32/v4.35/bin/bin/../../lib/gcc/pic32mx/8.3.1/../../../../pic32mx/lib/fpu64/libc-musl.a(gmtime_r.o)
 .debug_str     0x0000000000045c8e      0x3cb /opt/microchip/xc32/v4.35/bin/bin/../../lib/gcc/pic32mx/8.3.1/../../../../pic32mx/lib/fpu64/libc-musl.a(mktime.o)
 .debug_str     0x0000000000046059      0x46f /opt/microchip/xc32/v4.35/bin/bin/../../lib/gcc/pic32mx/8.3.1/../../../../pic32mx/lib/fpu64/libc-musl.a(vfprintf.o)
 .debug_str     0x00000000000464c8      0x32d /opt/microchip/xc32/v4.35/bin/bin/../../lib/gcc/pic32mx/8.3.1/../../../../pic32mx/lib/fpu64/libc-musl.a(memchr.o)
 .debug_str     0x00000000000467f5      0x3d6 /opt/microchip/xc32/v4.35/bin/bin/../../lib/gcc/pic32mx/8.3.1/../../../../pic32mx/lib/fpu64/libc-musl.a(__tm_to_secs.o)
 .debug_str     0x0000000000046bcb      0x33c /opt/microchip/xc32/v4.35/bin/bin/../../lib/gcc/pic32mx/8.3.1/../../../../pic32mx/lib/fpu64/libc-musl.a(__year_to_secs.o)
 .debug_str     0x0000000000046f07      0x412 /opt/microchip/xc32/v4.35/bin/bin/../../lib/gcc/pic32mx/8.3.1/../../../../pic32mx/lib/fpu64/libc-musl.a(__secs_to_tm.o)
 .debug_str     0x0000000000047319      0x423 /opt/microchip/xc32/v4.35/bin/bin/../../lib/gcc/pic32mx/8.3.1/../../../../pic32mx/lib/fpu64/libc-musl.a(__io_fmt_needed.o)
 .debug_str     0x000000000004773c      0x3b0 /opt/microchip/xc32/v4.35/bin/bin/../../lib/gcc/pic32mx/8.3.1/../../../../pic32mx/lib/fpu64/libc-musl.a(__pop_float.o)
 .debug_str     0x0000000000047aec      0x3bb /opt/microchip/xc32/v4.35/bin/bin/../../lib/gcc/pic32mx/8.3.1/../../../../pic32mx/lib/fpu64/libc-musl.a(__pop_int.o)
 .debug_str     0x0000000000047ea7      0x3bd /opt/microchip/xc32/v4.35/bin/bin/../../lib/gcc/pic32mx/8.3.1/../../../../pic32mx/lib/fpu64/libc-musl.a(__pop_ptr.o)
 .debug_str     0x0000000000048264      0x4d1 /opt/microchip/xc32/v4.35/bin/bin/../../lib/gcc/pic32mx/8.3.1/../../../../pic32mx/lib/fpu64/libc-musl.a(__printf_core.o)
 .debug_str     0x0000000000048735      0x31b /opt/microchip/xc32/v4.35/bin/bin/../../lib/gcc/pic32mx/8.3.1/../../../../pic32mx/lib/fpu64/libc-musl.a(atoi.o)
 .debug_str     0x0000000000048a50      0x32c /opt/microchip/xc32/v4.35/bin/bin/../../lib/gcc/pic32mx/8.3.1/../../../../pic32mx/lib/fpu64/libc-musl.a(__month_to_secs.o)
 .debug_str     0x0000000000048d7c      0x348 /opt/microchip/xc32/v4.35/bin/bin/../../lib/gcc/pic32mx/8.3.1/../../../../pic32mx/lib/fpu64/libc-musl.a(tolower.o)
 .debug_str     0x00000000000490c4      0x420 /opt/microchip/xc32/v4.35/bin/bin/../../lib/gcc/pic32mx/8.3.1/../../../../pic32mx/lib/fpu64/libc-musl.a(__fmt_a.o)
 .debug_str     0x00000000000494e4      0x3e2 /opt/microchip/xc32/v4.35/bin/bin/../../lib/gcc/pic32mx/8.3.1/../../../../pic32mx/lib/fpu64/libc-musl.a(__fmt_d.o)
 .debug_str     0x00000000000498c6      0x441 /opt/microchip/xc32/v4.35/bin/bin/../../lib/gcc/pic32mx/8.3.1/../../../../pic32mx/lib/fpu64/libc-musl.a(__fmt_fp.o)
 .debug_str     0x0000000000049d07      0x3e2 /opt/microchip/xc32/v4.35/bin/bin/../../lib/gcc/pic32mx/8.3.1/../../../../pic32mx/lib/fpu64/libc-musl.a(__fmt_o.o)
 .debug_str     0x000000000004a0e9      0x3ce /opt/microchip/xc32/v4.35/bin/bin/../../lib/gcc/pic32mx/8.3.1/../../../../pic32mx/lib/fpu64/libc-musl.a(__fmt_s.o)
 .debug_str     0x000000000004a4b7      0x3e2 /opt/microchip/xc32/v4.35/bin/bin/../../lib/gcc/pic32mx/8.3.1/../../../../pic32mx/lib/fpu64/libc-musl.a(__fmt_u.o)
 .debug_str     0x000000000004a899      0x3e2 /opt/microchip/xc32/v4.35/bin/bin/../../lib/gcc/pic32mx/8.3.1/../../../../pic32mx/lib/fpu64/libc-musl.a(__fmt_x.o)
 .debug_str     0x000000000004ac7b      0x30c /opt/microchip/xc32/v4.35/bin/bin/../../lib/gcc/pic32mx/8.3.1/../../../../pic32mx/lib/fpu64/libc-musl.a(strcpy.o)
 .debug_str     0x000000000004af87      0x348 /opt/microchip/xc32/v4.35/bin/bin/../../lib/gcc/pic32mx/8.3.1/../../../../pic32mx/lib/fpu64/libc-musl.a(toupper.o)
 .debug_str     0x000000000004b2cf      0x39e /opt/microchip/xc32/v4.35/bin/bin/../../lib/gcc/pic32mx/8.3.1/../../../../pic32mx/lib/fpu64/libc-musl.a(__cvt_u.o)
 .debug_str     0x000000000004b66d      0x324 /opt/microchip/xc32/v4.35/bin/bin/../../lib/gcc/pic32mx/8.3.1/../../../../pic32mx/lib/fpu64/libc-musl.a(stpcpy.o)
 .debug_str     0x000000000004b991      0x37b /opt/microchip/xc32/v4.35/bin/bin/../../lib/gcc/pic32mx/8.3.1/../../../../pic32mx/lib/fpu64/libm-musl.a(floor.o)
 .debug_str     0x000000000004bd0c      0x3b3 /opt/microchip/xc32/v4.35/bin/bin/../../lib/gcc/pic32mx/8.3.1/../../../../pic32mx/lib/fpu64/libm-musl.a(fma.o)
 .debug_str     0x000000000004c0bf      0x36b /opt/microchip/xc32/v4.35/bin/bin/../../lib/gcc/pic32mx/8.3.1/../../../../pic32mx/lib/fpu64/libm-musl.a(scalbn.o)
 .debug_str     0x000000000004c42a      0x3ce /opt/microchip/xc32/v4.35/bin/bin/../../lib/gcc/pic32mx/8.3.1/fpu64/libgcc.a(_lshrdi3.o)
 .debug_str     0x000000000004c7f8      0x3ce /opt/microchip/xc32/v4.35/bin/bin/../../lib/gcc/pic32mx/8.3.1/fpu64/libgcc.a(_ashldi3.o)
 .debug_str     0x000000000004cbc6      0x40a /opt/microchip/xc32/v4.35/bin/bin/../../lib/gcc/pic32mx/8.3.1/fpu64/libgcc.a(_divdi3.o)
 .debug_str     0x000000000004cfd0      0x40a /opt/microchip/xc32/v4.35/bin/bin/../../lib/gcc/pic32mx/8.3.1/fpu64/libgcc.a(_moddi3.o)
 .debug_str     0x000000000004d3da      0x40b /opt/microchip/xc32/v4.35/bin/bin/../../lib/gcc/pic32mx/8.3.1/fpu64/libgcc.a(_umoddi3.o)
 .debug_str     0x000000000004d7e5      0x340 /opt/microchip/xc32/v4.35/bin/bin/../../lib/gcc/pic32mx/8.3.1/../../../../pic32mx/lib/fpu64/libpic32.a(errno.o)

.debug_loc      0x0000000000000000     0x6e50
 *.elf(.debug_loc)
 *(.debug_loc)
 .debug_loc     0x0000000000000000      0x9f5 /opt/microchip/xc32/v4.35/bin/bin/../../lib/gcc/pic32mx/8.3.1/fpu64/libgcc.a(_udivdi3.o)
 .debug_loc     0x00000000000009f5       0xef /opt/microchip/xc32/v4.35/bin/bin/../../lib/gcc/pic32mx/8.3.1/../../../../pic32mx/lib/fpu64/libc-musl.a(vsnprintf.o)
 .debug_loc     0x0000000000000ae4       0x5f /opt/microchip/xc32/v4.35/bin/bin/../../lib/gcc/pic32mx/8.3.1/../../../../pic32mx/lib/fpu64/libc-musl.a(sprintf.o)
 .debug_loc     0x0000000000000b43       0x89 /opt/microchip/xc32/v4.35/bin/bin/../../lib/gcc/pic32mx/8.3.1/../../../../pic32mx/lib/fpu64/libc-musl.a(vsprintf.o)
 .debug_loc     0x0000000000000bcc       0x6c /opt/microchip/xc32/v4.35/bin/bin/../../lib/gcc/pic32mx/8.3.1/../../../../pic32mx/lib/fpu64/libc-musl.a(strchr.o)
 .debug_loc     0x0000000000000c38       0xa8 /opt/microchip/xc32/v4.35/bin/bin/../../lib/gcc/pic32mx/8.3.1/../../../../pic32mx/lib/fpu64/libc-musl.a(strchrnul.o)
 .debug_loc     0x0000000000000ce0       0x86 /opt/microchip/xc32/v4.35/bin/bin/../../lib/gcc/pic32mx/8.3.1/../../../../pic32mx/lib/fpu64/libc-musl.a(strnlen.o)
 .debug_loc     0x0000000000000d66       0x25 /opt/microchip/xc32/v4.35/bin/bin/../../lib/gcc/pic32mx/8.3.1/../../../../pic32mx/lib/fpu64/libc-musl.a(gmtime.o)
 .debug_loc     0x0000000000000d8b       0x71 /opt/microchip/xc32/v4.35/bin/bin/../../lib/gcc/pic32mx/8.3.1/../../../../pic32mx/lib/fpu64/libc-musl.a(gmtime_r.o)
 .debug_loc     0x0000000000000dfc       0x6b /opt/microchip/xc32/v4.35/bin/bin/../../lib/gcc/pic32mx/8.3.1/../../../../pic32mx/lib/fpu64/libc-musl.a(mktime.o)
 .debug_loc     0x0000000000000e67       0x9f /opt/microchip/xc32/v4.35/bin/bin/../../lib/gcc/pic32mx/8.3.1/../../../../pic32mx/lib/fpu64/libc-musl.a(vfprintf.o)
 .debug_loc     0x0000000000000f06       0xbc /opt/microchip/xc32/v4.35/bin/bin/../../lib/gcc/pic32mx/8.3.1/../../../../pic32mx/lib/fpu64/libc-musl.a(memchr.o)
 .debug_loc     0x0000000000000fc2       0xfb /opt/microchip/xc32/v4.35/bin/bin/../../lib/gcc/pic32mx/8.3.1/../../../../pic32mx/lib/fpu64/libc-musl.a(__tm_to_secs.o)
 .debug_loc     0x00000000000010bd      0x232 /opt/microchip/xc32/v4.35/bin/bin/../../lib/gcc/pic32mx/8.3.1/../../../../pic32mx/lib/fpu64/libc-musl.a(__year_to_secs.o)
 .debug_loc     0x00000000000012ef      0x388 /opt/microchip/xc32/v4.35/bin/bin/../../lib/gcc/pic32mx/8.3.1/../../../../pic32mx/lib/fpu64/libc-musl.a(__secs_to_tm.o)
 .debug_loc     0x0000000000001677       0x40 /opt/microchip/xc32/v4.35/bin/bin/../../lib/gcc/pic32mx/8.3.1/../../../../pic32mx/lib/fpu64/libc-musl.a(__pop_ptr.o)
 .debug_loc     0x00000000000016b7      0x56c /opt/microchip/xc32/v4.35/bin/bin/../../lib/gcc/pic32mx/8.3.1/../../../../pic32mx/lib/fpu64/libc-musl.a(__printf_core.o)
 .debug_loc     0x0000000000001c23       0xbe /opt/microchip/xc32/v4.35/bin/bin/../../lib/gcc/pic32mx/8.3.1/../../../../pic32mx/lib/fpu64/libc-musl.a(atoi.o)
 .debug_loc     0x0000000000001ce1       0x3a /opt/microchip/xc32/v4.35/bin/bin/../../lib/gcc/pic32mx/8.3.1/../../../../pic32mx/lib/fpu64/libc-musl.a(__month_to_secs.o)
 .debug_loc     0x0000000000001d1b      0xb54 /opt/microchip/xc32/v4.35/bin/bin/../../lib/gcc/pic32mx/8.3.1/../../../../pic32mx/lib/fpu64/libc-musl.a(__fmt_a.o)
 .debug_loc     0x000000000000286f      0x241 /opt/microchip/xc32/v4.35/bin/bin/../../lib/gcc/pic32mx/8.3.1/../../../../pic32mx/lib/fpu64/libc-musl.a(__fmt_d.o)
 .debug_loc     0x0000000000002ab0      0xcd4 /opt/microchip/xc32/v4.35/bin/bin/../../lib/gcc/pic32mx/8.3.1/../../../../pic32mx/lib/fpu64/libc-musl.a(__fmt_fp.o)
 .debug_loc     0x0000000000003784       0xf2 /opt/microchip/xc32/v4.35/bin/bin/../../lib/gcc/pic32mx/8.3.1/../../../../pic32mx/lib/fpu64/libc-musl.a(__fmt_o.o)
 .debug_loc     0x0000000000003876      0x11f /opt/microchip/xc32/v4.35/bin/bin/../../lib/gcc/pic32mx/8.3.1/../../../../pic32mx/lib/fpu64/libc-musl.a(__fmt_s.o)
 .debug_loc     0x0000000000003995       0xf2 /opt/microchip/xc32/v4.35/bin/bin/../../lib/gcc/pic32mx/8.3.1/../../../../pic32mx/lib/fpu64/libc-musl.a(__fmt_u.o)
 .debug_loc     0x0000000000003a87      0x317 /opt/microchip/xc32/v4.35/bin/bin/../../lib/gcc/pic32mx/8.3.1/../../../../pic32mx/lib/fpu64/libc-musl.a(__fmt_x.o)
 .debug_loc     0x0000000000003d9e       0x54 /opt/microchip/xc32/v4.35/bin/bin/../../lib/gcc/pic32mx/8.3.1/../../../../pic32mx/lib/fpu64/libc-musl.a(strcpy.o)
 .debug_loc     0x0000000000003df2      0x1fe /opt/microchip/xc32/v4.35/bin/bin/../../lib/gcc/pic32mx/8.3.1/../../../../pic32mx/lib/fpu64/libc-musl.a(__cvt_u.o)
 .debug_loc     0x0000000000003ff0       0x5e /opt/microchip/xc32/v4.35/bin/bin/../../lib/gcc/pic32mx/8.3.1/../../../../pic32mx/lib/fpu64/libc-musl.a(stpcpy.o)
 .debug_loc     0x000000000000404e       0x7e /opt/microchip/xc32/v4.35/bin/bin/../../lib/gcc/pic32mx/8.3.1/../../../../pic32mx/lib/fpu64/libm-musl.a(floor.o)
 .debug_loc     0x00000000000040cc      0xc8c /opt/microchip/xc32/v4.35/bin/bin/../../lib/gcc/pic32mx/8.3.1/../../../../pic32mx/lib/fpu64/libm-musl.a(fma.o)
 .debug_loc     0x0000000000004d58      0x16e /opt/microchip/xc32/v4.35/bin/bin/../../lib/gcc/pic32mx/8.3.1/../../../../pic32mx/lib/fpu64/libm-musl.a(scalbn.o)
 .debug_loc     0x0000000000004ec6       0x99 /opt/microchip/xc32/v4.35/bin/bin/../../lib/gcc/pic32mx/8.3.1/fpu64/libgcc.a(_lshrdi3.o)
 .debug_loc     0x0000000000004f5f       0x75 /opt/microchip/xc32/v4.35/bin/bin/../../lib/gcc/pic32mx/8.3.1/fpu64/libgcc.a(_ashldi3.o)
 .debug_loc     0x0000000000004fd4      0xb60 /opt/microchip/xc32/v4.35/bin/bin/../../lib/gcc/pic32mx/8.3.1/fpu64/libgcc.a(_divdi3.o)
 .debug_loc     0x0000000000005b34      0x982 /opt/microchip/xc32/v4.35/bin/bin/../../lib/gcc/pic32mx/8.3.1/fpu64/libgcc.a(_moddi3.o)
 .debug_loc     0x00000000000064b6      0x99a /opt/microchip/xc32/v4.35/bin/bin/../../lib/gcc/pic32mx/8.3.1/fpu64/libgcc.a(_umoddi3.o)

.debug_macinfo
 *.elf(.debug_macinfo)
 *(.debug_macinfo)

.debug_weaknames
 *.elf(.debug_weaknames)
 *(.debug_weaknames)

.debug_funcnames
 *.elf(.debug_funcnames)
 *(.debug_funcnames)

.debug_typenames
 *.elf(.debug_typenames)
 *(.debug_typenames)

.debug_varnames
 *.elf(.debug_varnames)
 *(.debug_varnames)

.debug_pubtypes
 *.elf(.debug_pubtypes)
 *(.debug_pubtypes)

.debug_ranges   0x0000000000000000      0xb30
 *.elf(.debug_ranges)
 *(.debug_ranges)
 .debug_ranges  0x0000000000000000       0x30 build/default/production/_ext/1865657120/plib_uart2.o
 .debug_ranges  0x0000000000000030       0x68 build/default/production/_ext/1171490990/interrupts_a.o
 .debug_ranges  0x0000000000000098       0x28 build/default/production/_ext/951553246/port_asm.o
 .debug_ranges  0x00000000000000c0      0x140 build/default/production/_ext/1954180691/wdrv_winc.o
 .debug_ranges  0x0000000000000200       0x60 build/default/production/_ext/1667573777/m2m_hif.o
 .debug_ranges  0x0000000000000260       0xb8 build/default/production/_ext/2094051164/socket.o
 .debug_ranges  0x0000000000000318       0x60 build/default/production/_ext/1667573777/m2m_wifi.o
 .debug_ranges  0x0000000000000378       0x60 build/default/production/_ext/651226651/gatt_server.o
 .debug_ranges  0x00000000000003d8       0x18 build/default/production/_ext/1667573777/m2m_flash.o
 .debug_ranges  0x00000000000003f0       0x18 build/default/production/_ext/1667573777/nmasic.o
 .debug_ranges  0x0000000000000408       0x30 build/default/production/example.o
 .debug_ranges  0x0000000000000438       0xd8 /opt/microchip/xc32/v4.35/bin/bin/../../lib/gcc/pic32mx/8.3.1/fpu64/libgcc.a(_udivdi3.o)
 .debug_ranges  0x0000000000000510       0x10 /opt/microchip/xc32/v4.35/bin/bin/../../lib/gcc/pic32mx/8.3.1/../../../../pic32mx/lib/fpu64/libpic32.a(default-on-reset.o)
 .debug_ranges  0x0000000000000520       0x10 /opt/microchip/xc32/v4.35/bin/bin/../../lib/gcc/pic32mx/8.3.1/../../../../pic32mx/lib/fpu64/libpic32.a(default-on-bootstrap.o)
 .debug_ranges  0x0000000000000530       0x10 /opt/microchip/xc32/v4.35/bin/bin/../../lib/gcc/pic32mx/8.3.1/../../../../pic32mx/lib/fpu64/libpic32.a(defaultinterrupt.o)
 .debug_ranges  0x0000000000000540       0x10 /opt/microchip/xc32/v4.35/bin/bin/../../lib/gcc/pic32mx/8.3.1/../../../../pic32mx/lib/fpu64/libc-musl.a(vsnprintf.o)
 .debug_ranges  0x0000000000000550       0x10 /opt/microchip/xc32/v4.35/bin/bin/../../lib/gcc/pic32mx/8.3.1/../../../../pic32mx/lib/fpu64/libc-musl.a(sprintf.o)
 .debug_ranges  0x0000000000000560       0x10 /opt/microchip/xc32/v4.35/bin/bin/../../lib/gcc/pic32mx/8.3.1/../../../../pic32mx/lib/fpu64/libc-musl.a(vsprintf.o)
 .debug_ranges  0x0000000000000570       0x10 /opt/microchip/xc32/v4.35/bin/bin/../../lib/gcc/pic32mx/8.3.1/../../../../pic32mx/lib/fpu64/libc-musl.a(strchr.o)
 .debug_ranges  0x0000000000000580       0x10 /opt/microchip/xc32/v4.35/bin/bin/../../lib/gcc/pic32mx/8.3.1/../../../../pic32mx/lib/fpu64/libc-musl.a(strchrnul.o)
 .debug_ranges  0x0000000000000590       0x10 /opt/microchip/xc32/v4.35/bin/bin/../../lib/gcc/pic32mx/8.3.1/../../../../pic32mx/lib/fpu64/libc-musl.a(strnlen.o)
 .debug_ranges  0x00000000000005a0       0x10 /opt/microchip/xc32/v4.35/bin/bin/../../lib/gcc/pic32mx/8.3.1/../../../../pic32mx/lib/fpu64/libc-musl.a(gmtime.o)
 .debug_ranges  0x00000000000005b0       0x10 /opt/microchip/xc32/v4.35/bin/bin/../../lib/gcc/pic32mx/8.3.1/../../../../pic32mx/lib/fpu64/libc-musl.a(gmtime_r.o)
 .debug_ranges  0x00000000000005c0       0x10 /opt/microchip/xc32/v4.35/bin/bin/../../lib/gcc/pic32mx/8.3.1/../../../../pic32mx/lib/fpu64/libc-musl.a(mktime.o)
 .debug_ranges  0x00000000000005d0       0x18 /opt/microchip/xc32/v4.35/bin/bin/../../lib/gcc/pic32mx/8.3.1/../../../../pic32mx/lib/fpu64/libc-musl.a(vfprintf.o)
 .debug_ranges  0x00000000000005e8       0x10 /opt/microchip/xc32/v4.35/bin/bin/../../lib/gcc/pic32mx/8.3.1/../../../../pic32mx/lib/fpu64/libc-musl.a(memchr.o)
 .debug_ranges  0x00000000000005f8       0x10 /opt/microchip/xc32/v4.35/bin/bin/../../lib/gcc/pic32mx/8.3.1/../../../../pic32mx/lib/fpu64/libc-musl.a(__tm_to_secs.o)
 .debug_ranges  0x0000000000000608       0x28 /opt/microchip/xc32/v4.35/bin/bin/../../lib/gcc/pic32mx/8.3.1/../../../../pic32mx/lib/fpu64/libc-musl.a(__year_to_secs.o)
 .debug_ranges  0x0000000000000630       0x10 /opt/microchip/xc32/v4.35/bin/bin/../../lib/gcc/pic32mx/8.3.1/../../../../pic32mx/lib/fpu64/libc-musl.a(__secs_to_tm.o)
 .debug_ranges  0x0000000000000640       0x10 /opt/microchip/xc32/v4.35/bin/bin/../../lib/gcc/pic32mx/8.3.1/../../../../pic32mx/lib/fpu64/libc-musl.a(__io_fmt_needed.o)
 .debug_ranges  0x0000000000000650       0x10 /opt/microchip/xc32/v4.35/bin/bin/../../lib/gcc/pic32mx/8.3.1/../../../../pic32mx/lib/fpu64/libc-musl.a(__pop_float.o)
 .debug_ranges  0x0000000000000660       0x10 /opt/microchip/xc32/v4.35/bin/bin/../../lib/gcc/pic32mx/8.3.1/../../../../pic32mx/lib/fpu64/libc-musl.a(__pop_int.o)
 .debug_ranges  0x0000000000000670       0x10 /opt/microchip/xc32/v4.35/bin/bin/../../lib/gcc/pic32mx/8.3.1/../../../../pic32mx/lib/fpu64/libc-musl.a(__pop_ptr.o)
 .debug_ranges  0x0000000000000680       0xe8 /opt/microchip/xc32/v4.35/bin/bin/../../lib/gcc/pic32mx/8.3.1/../../../../pic32mx/lib/fpu64/libc-musl.a(__printf_core.o)
 .debug_ranges  0x0000000000000768       0x28 /opt/microchip/xc32/v4.35/bin/bin/../../lib/gcc/pic32mx/8.3.1/../../../../pic32mx/lib/fpu64/libc-musl.a(atoi.o)
 .debug_ranges  0x0000000000000790       0x10 /opt/microchip/xc32/v4.35/bin/bin/../../lib/gcc/pic32mx/8.3.1/../../../../pic32mx/lib/fpu64/libc-musl.a(__month_to_secs.o)
 .debug_ranges  0x00000000000007a0       0x18 /opt/microchip/xc32/v4.35/bin/bin/../../lib/gcc/pic32mx/8.3.1/../../../../pic32mx/lib/fpu64/libc-musl.a(tolower.o)
 .debug_ranges  0x00000000000007b8       0x10 /opt/microchip/xc32/v4.35/bin/bin/../../lib/gcc/pic32mx/8.3.1/../../../../pic32mx/lib/fpu64/libc-musl.a(__fmt_a.o)
 .debug_ranges  0x00000000000007c8       0x10 /opt/microchip/xc32/v4.35/bin/bin/../../lib/gcc/pic32mx/8.3.1/../../../../pic32mx/lib/fpu64/libc-musl.a(__fmt_d.o)
 .debug_ranges  0x00000000000007d8       0x10 /opt/microchip/xc32/v4.35/bin/bin/../../lib/gcc/pic32mx/8.3.1/../../../../pic32mx/lib/fpu64/libc-musl.a(__fmt_fp.o)
 .debug_ranges  0x00000000000007e8       0x10 /opt/microchip/xc32/v4.35/bin/bin/../../lib/gcc/pic32mx/8.3.1/../../../../pic32mx/lib/fpu64/libc-musl.a(__fmt_o.o)
 .debug_ranges  0x00000000000007f8       0x10 /opt/microchip/xc32/v4.35/bin/bin/../../lib/gcc/pic32mx/8.3.1/../../../../pic32mx/lib/fpu64/libc-musl.a(__fmt_s.o)
 .debug_ranges  0x0000000000000808       0x10 /opt/microchip/xc32/v4.35/bin/bin/../../lib/gcc/pic32mx/8.3.1/../../../../pic32mx/lib/fpu64/libc-musl.a(__fmt_u.o)
 .debug_ranges  0x0000000000000818       0x10 /opt/microchip/xc32/v4.35/bin/bin/../../lib/gcc/pic32mx/8.3.1/../../../../pic32mx/lib/fpu64/libc-musl.a(__fmt_x.o)
 .debug_ranges  0x0000000000000828       0x10 /opt/microchip/xc32/v4.35/bin/bin/../../lib/gcc/pic32mx/8.3.1/../../../../pic32mx/lib/fpu64/libc-musl.a(strcpy.o)
 .debug_ranges  0x0000000000000838       0x18 /opt/microchip/xc32/v4.35/bin/bin/../../lib/gcc/pic32mx/8.3.1/../../../../pic32mx/lib/fpu64/libc-musl.a(toupper.o)
 .debug_ranges  0x0000000000000850       0x10 /opt/microchip/xc32/v4.35/bin/bin/../../lib/gcc/pic32mx/8.3.1/../../../../pic32mx/lib/fpu64/libc-musl.a(__cvt_u.o)
 .debug_ranges  0x0000000000000860       0x10 /opt/microchip/xc32/v4.35/bin/bin/../../lib/gcc/pic32mx/8.3.1/../../../../pic32mx/lib/fpu64/libc-musl.a(stpcpy.o)
 .debug_ranges  0x0000000000000870       0x10 /opt/microchip/xc32/v4.35/bin/bin/../../lib/gcc/pic32mx/8.3.1/../../../../pic32mx/lib/fpu64/libm-musl.a(floor.o)
 .debug_ranges  0x0000000000000880       0x78 /opt/microchip/xc32/v4.35/bin/bin/../../lib/gcc/pic32mx/8.3.1/../../../../pic32mx/lib/fpu64/libm-musl.a(fma.o)
 .debug_ranges  0x00000000000008f8       0x10 /opt/microchip/xc32/v4.35/bin/bin/../../lib/gcc/pic32mx/8.3.1/../../../../pic32mx/lib/fpu64/libm-musl.a(scalbn.o)
 .debug_ranges  0x0000000000000908       0xc0 /opt/microchip/xc32/v4.35/bin/bin/../../lib/gcc/pic32mx/8.3.1/fpu64/libgcc.a(_divdi3.o)
 .debug_ranges  0x00000000000009c8       0xa8 /opt/microchip/xc32/v4.35/bin/bin/../../lib/gcc/pic32mx/8.3.1/fpu64/libgcc.a(_moddi3.o)
 .debug_ranges  0x0000000000000a70       0xc0 /opt/microchip/xc32/v4.35/bin/bin/../../lib/gcc/pic32mx/8.3.1/fpu64/libgcc.a(_umoddi3.o)

.gnu.attributes
                0x0000000000000000       0x10
 *(.gnu.attributes)
 .gnu.attributes
                0x0000000000000000       0x10 /opt/microchip/xc32/v4.35/bin/bin/../../lib/gcc/pic32mx/8.3.1/../../../../pic32mx/lib/fpu64/debug-exception-return.o
 .gnu.attributes
                0x0000000000000010       0x10 build/default/production/_ext/1529399856/osal_freertos.o
 .gnu.attributes
                0x0000000000000020       0x10 build/default/production/_ext/60165520/plib_clk.o
 .gnu.attributes
                0x0000000000000030       0x10 build/default/production/_ext/1249264884/plib_coretimer.o
 .gnu.attributes
                0x0000000000000040       0x10 build/default/production/_ext/1865200349/plib_evic.o
 .gnu.attributes
                0x0000000000000050       0x10 build/default/production/_ext/1865254177/plib_gpio.o
 .gnu.attributes
                0x0000000000000060       0x10 build/default/production/_ext/60181895/plib_tmr9.o
 .gnu.attributes
                0x0000000000000070       0x10 build/default/production/_ext/60181895/plib_tmr8.o
 .gnu.attributes
                0x0000000000000080       0x10 build/default/production/_ext/1865657120/plib_uart2.o
 .gnu.attributes
                0x0000000000000090       0x10 build/default/production/_ext/163028504/xc32_monitor.o
 .gnu.attributes
                0x00000000000000a0       0x10 build/default/production/_ext/1832805299/sys_console_uart.o
 .gnu.attributes
                0x00000000000000b0       0x10 build/default/production/_ext/1832805299/sys_console.o
 .gnu.attributes
                0x00000000000000c0       0x10 build/default/production/_ext/944882569/sys_debug.o
 .gnu.attributes
                0x00000000000000d0       0x10 build/default/production/_ext/14461671/sys_dma.o
 .gnu.attributes
                0x00000000000000e0       0x10 build/default/production/_ext/1881668453/sys_int.o
 .gnu.attributes
                0x00000000000000f0       0x10 build/default/production/_ext/101884895/sys_time.o
 .gnu.attributes
                0x0000000000000100       0x10 build/default/production/_ext/1171490990/freertos_hooks.o
 .gnu.attributes
                0x0000000000000110       0x10 build/default/production/_ext/1171490990/interrupts.o
 .gnu.attributes
                0x0000000000000120       0x10 build/default/production/_ext/1171490990/tasks.o
 .gnu.attributes
                0x0000000000000130       0x10 build/default/production/_ext/1171490990/initialization.o
 .gnu.attributes
                0x0000000000000140       0x10 build/default/production/_ext/1171490990/interrupts_a.o
 .gnu.attributes
                0x0000000000000150       0x10 build/default/production/_ext/1171490990/exceptions.o
 .gnu.attributes
                0x0000000000000160       0x10 build/default/production/_ext/1665200909/heap_1.o
 .gnu.attributes
                0x0000000000000170       0x10 build/default/production/_ext/951553246/port_asm.o
 .gnu.attributes
                0x0000000000000180       0x10 build/default/production/_ext/951553246/port.o
 .gnu.attributes
                0x0000000000000190       0x10 build/default/production/_ext/404212886/croutine.o
 .gnu.attributes
                0x00000000000001a0       0x10 build/default/production/_ext/404212886/queue.o
 .gnu.attributes
                0x00000000000001b0       0x10 build/default/production/_ext/404212886/timers.o
 .gnu.attributes
                0x00000000000001c0       0x10 build/default/production/_ext/404212886/stream_buffer.o
 .gnu.attributes
                0x00000000000001d0       0x10 build/default/production/_ext/404212886/event_groups.o
 .gnu.attributes
                0x00000000000001e0       0x10 build/default/production/_ext/404212886/FreeRTOS_tasks.o
 .gnu.attributes
                0x00000000000001f0       0x10 build/default/production/_ext/404212886/list.o
 .gnu.attributes
                0x0000000000000200       0x10 build/default/production/_ext/1360937237/app.o
 .gnu.attributes
                0x0000000000000210       0x10 build/default/production/_ext/1360937237/main.o
 .gnu.attributes
                0x0000000000000220       0x10 build/default/production/_ext/1954180691/wdrv_winc.o
 .gnu.attributes
                0x0000000000000230       0x10 build/default/production/_ext/1865161661/plib_dmac.o
 .gnu.attributes
                0x0000000000000240       0x10 build/default/production/_ext/1954180691/wdrv_winc_nvm.o
 .gnu.attributes
                0x0000000000000250       0x10 build/default/production/_ext/651226651/event.o
 .gnu.attributes
                0x0000000000000260       0x10 build/default/production/_ext/1954180691/wdrv_winc_bssctx.o
 .gnu.attributes
                0x0000000000000270       0x10 build/default/production/_ext/651226651/gatt_client.o
 .gnu.attributes
                0x0000000000000280       0x10 build/default/production/_ext/298189674/plib_spi1_master.o
 .gnu.attributes
                0x0000000000000290       0x10 build/default/production/_ext/1954180691/wdrv_winc_powersave.o
 .gnu.attributes
                0x00000000000002a0       0x10 build/default/production/_ext/1954180691/wdrv_winc_systime.o
 .gnu.attributes
                0x00000000000002b0       0x10 build/default/production/_ext/651226651/gattc_task.o
 .gnu.attributes
                0x00000000000002c0       0x10 build/default/production/_ext/1667573777/m2m_hif.o
 .gnu.attributes
                0x00000000000002d0       0x10 build/default/production/_ext/1667573777/m2m_periph.o
 .gnu.attributes
                0x00000000000002e0       0x10 build/default/production/_ext/1068697685/wdrv_winc_eint.o
 .gnu.attributes
                0x00000000000002f0       0x10 build/default/production/_ext/651226651/interface.o
 .gnu.attributes
                0x0000000000000300       0x10 build/default/production/_ext/651226651/gapc_task.o
 .gnu.attributes
                0x0000000000000310       0x10 build/default/production/_ext/651226651/error.o
 .gnu.attributes
                0x0000000000000320       0x10 build/default/production/_ext/1954180691/wdrv_winc_sta.o
 .gnu.attributes
                0x0000000000000330       0x10 build/default/production/_ext/651226651/wifiprov_task.o
 .gnu.attributes
                0x0000000000000340       0x10 build/default/production/_ext/1908349716/spi_flash.o
 .gnu.attributes
                0x0000000000000350       0x10 build/default/production/_ext/2094051164/socket.o
 .gnu.attributes
                0x0000000000000360       0x10 build/default/production/_ext/1697030576/wdrv_winc_spi.o
 .gnu.attributes
                0x0000000000000370       0x10 build/default/production/_ext/1667573777/m2m_wifi.o
 .gnu.attributes
                0x0000000000000380       0x10 build/default/production/_ext/1667573777/nmbus.o
 .gnu.attributes
                0x0000000000000390       0x10 build/default/production/_ext/1954180691/wdrv_winc_wps.o
 .gnu.attributes
                0x00000000000003a0       0x10 build/default/production/_ext/651226651/gatt_server.o
 .gnu.attributes
                0x00000000000003b0       0x10 build/default/production/_ext/1954180691/wdrv_winc_httpprovctx.o
 .gnu.attributes
                0x00000000000003c0       0x10 build/default/production/_ext/1954180691/wdrv_winc_softap.o
 .gnu.attributes
                0x00000000000003d0       0x10 build/default/production/_ext/1667573777/nmspi.o
 .gnu.attributes
                0x00000000000003e0       0x10 build/default/production/_ext/1954180691/wdrv_winc_ble.o
 .gnu.attributes
                0x00000000000003f0       0x10 build/default/production/_ext/1667573777/nmdrv.o
 .gnu.attributes
                0x0000000000000400       0x10 build/default/production/_ext/2094051164/inet_addr.o
 .gnu.attributes
                0x0000000000000410       0x10 build/default/production/_ext/1667573777/m2m_ota.o
 .gnu.attributes
                0x0000000000000420       0x10 build/default/production/_ext/2018374705/wdrv_winc_osal.o
 .gnu.attributes
                0x0000000000000430       0x10 build/default/production/_ext/1954180691/wdrv_winc_authctx.o
 .gnu.attributes
                0x0000000000000440       0x10 build/default/production/_ext/1306418660/platform.o
 .gnu.attributes
                0x0000000000000450       0x10 build/default/production/_ext/1954180691/wdrv_winc_bssfind.o
 .gnu.attributes
                0x0000000000000460       0x10 build/default/production/_ext/651226651/gattm_task.o
 .gnu.attributes
                0x0000000000000470       0x10 build/default/production/_ext/1954180691/wdrv_winc_custie.o
 .gnu.attributes
                0x0000000000000480       0x10 build/default/production/_ext/1954180691/wdrv_winc_enterprise.o
 .gnu.attributes
                0x0000000000000490       0x10 build/default/production/_ext/651226651/htpt.o
 .gnu.attributes
                0x00000000000004a0       0x10 build/default/production/_ext/2094051164/inet_ntop.o
 .gnu.attributes
                0x00000000000004b0       0x10 build/default/production/_ext/1636284884/nm_common.o
 .gnu.attributes
                0x00000000000004c0       0x10 build/default/production/_ext/1667573777/m2m_flash.o
 .gnu.attributes
                0x00000000000004d0       0x10 build/default/production/_ext/651226651/gapm_task.o
 .gnu.attributes
                0x00000000000004e0       0x10 build/default/production/_ext/1954180691/wdrv_winc_ssl.o
 .gnu.attributes
                0x00000000000004f0       0x10 build/default/production/_ext/651226651/dbg_task.o
 .gnu.attributes
                0x0000000000000500       0x10 build/default/production/_ext/2070931557/drv_spi.o
 .gnu.attributes
                0x0000000000000510       0x10 build/default/production/_ext/1954180691/wdrv_winc_socket.o
 .gnu.attributes
                0x0000000000000520       0x10 build/default/production/_ext/651226651/gap.o
 .gnu.attributes
                0x0000000000000530       0x10 build/default/production/_ext/1667573777/m2m_ssl.o
 .gnu.attributes
                0x0000000000000540       0x10 build/default/production/_ext/1068697685/wdrv_winc_gpio.o
 .gnu.attributes
                0x0000000000000550       0x10 build/default/production/_ext/651226651/security.o
 .gnu.attributes
                0x0000000000000560       0x10 build/default/production/_ext/1954180691/wdrv_winc_assoc.o
 .gnu.attributes
                0x0000000000000570       0x10 build/default/production/_ext/651226651/htpt_task.o
 .gnu.attributes
                0x0000000000000580       0x10 build/default/production/_ext/1667573777/nmasic.o
 .gnu.attributes
                0x0000000000000590       0x10 build/default/production/example.o
 .gnu.attributes
                0x00000000000005a0       0x10 /tmp/ccyN9zno.o
 .gnu.attributes
                0x00000000000005b0       0x10 /tmp/cc6wiA0f.o
 .gnu.attributes
                0x00000000000005c0       0x10 /tmp/ccNcFTSD.o
 .gnu.attributes
                0x00000000000005d0       0x10 /tmp/ccmzy7S2.o
 .gnu.attributes
                0x00000000000005e0       0x10 /opt/microchip/xc32/v4.35/bin/bin/../../lib/gcc/pic32mx/8.3.1/../../../../pic32mx/lib/fpu64/pic32_software_reset.o
 .gnu.attributes
                0x00000000000005f0       0x10 /opt/microchip/xc32/v4.35/bin/bin/../../lib/gcc/pic32mx/8.3.1/fpu64/libgcc.a(_udivdi3.o)
 .gnu.attributes
                0x0000000000000600       0x10 /opt/microchip/xc32/v4.35/bin/bin/../../lib/gcc/pic32mx/8.3.1/../../../../pic32mx/lib/fpu64/libpic32.a(memcmp.o)
 .gnu.attributes
                0x0000000000000610       0x10 /opt/microchip/xc32/v4.35/bin/bin/../../lib/gcc/pic32mx/8.3.1/../../../../pic32mx/lib/fpu64/libpic32.a(memcpy.o)
 .gnu.attributes
                0x0000000000000620       0x10 /opt/microchip/xc32/v4.35/bin/bin/../../lib/gcc/pic32mx/8.3.1/../../../../pic32mx/lib/fpu64/libpic32.a(memset.o)
 .gnu.attributes
                0x0000000000000630       0x10 /opt/microchip/xc32/v4.35/bin/bin/../../lib/gcc/pic32mx/8.3.1/../../../../pic32mx/lib/fpu64/libpic32.a(strlen.o)
 .gnu.attributes
                0x0000000000000640       0x10 /opt/microchip/xc32/v4.35/bin/bin/../../lib/gcc/pic32mx/8.3.1/../../../../pic32mx/lib/fpu64/libpic32.a(default-on-reset.o)
 .gnu.attributes
                0x0000000000000650       0x10 /opt/microchip/xc32/v4.35/bin/bin/../../lib/gcc/pic32mx/8.3.1/../../../../pic32mx/lib/fpu64/libpic32.a(default-on-bootstrap.o)
 .gnu.attributes
                0x0000000000000660       0x10 /opt/microchip/xc32/v4.35/bin/bin/../../lib/gcc/pic32mx/8.3.1/../../../../pic32mx/lib/fpu64/libpic32.a(default-nmi-handler.o)
 .gnu.attributes
                0x0000000000000670       0x10 /opt/microchip/xc32/v4.35/bin/bin/../../lib/gcc/pic32mx/8.3.1/../../../../pic32mx/lib/fpu64/libpic32.a(pic32_data_init_core.o)
 .gnu.attributes
                0x0000000000000680       0x10 /opt/microchip/xc32/v4.35/bin/bin/../../lib/gcc/pic32mx/8.3.1/../../../../pic32mx/lib/fpu64/libpic32.a(pic32_init_cache.o)
 .gnu.attributes
                0x0000000000000690       0x10 /opt/microchip/xc32/v4.35/bin/bin/../../lib/gcc/pic32mx/8.3.1/../../../../pic32mx/lib/fpu64/libpic32.a(pic32_init_tlb_ebi_sqi.o)
 .gnu.attributes
                0x00000000000006a0       0x10 /opt/microchip/xc32/v4.35/bin/bin/../../lib/gcc/pic32mx/8.3.1/../../../../pic32mx/lib/fpu64/libpic32.a(general-exception.o)
 .gnu.attributes
                0x00000000000006b0       0x10 /opt/microchip/xc32/v4.35/bin/bin/../../lib/gcc/pic32mx/8.3.1/../../../../pic32mx/lib/fpu64/libpic32.a(cache-err-exception.o)
 .gnu.attributes
                0x00000000000006c0       0x10 /opt/microchip/xc32/v4.35/bin/bin/../../lib/gcc/pic32mx/8.3.1/../../../../pic32mx/lib/fpu64/libpic32.a(simple-tlb-refill-exception.o)
 .gnu.attributes
                0x00000000000006d0       0x10 /opt/microchip/xc32/v4.35/bin/bin/../../lib/gcc/pic32mx/8.3.1/../../../../pic32mx/lib/fpu64/libpic32.a(defaultinterrupt.o)
 .gnu.attributes
                0x00000000000006e0       0x10 /opt/microchip/xc32/v4.35/bin/bin/../../lib/gcc/pic32mx/8.3.1/../../../../pic32mx/lib/fpu64/libc-musl.a(vsnprintf.o)
 .gnu.attributes
                0x00000000000006f0       0x10 /opt/microchip/xc32/v4.35/bin/bin/../../lib/gcc/pic32mx/8.3.1/../../../../pic32mx/lib/fpu64/libc-musl.a(sprintf.o)
 .gnu.attributes
                0x0000000000000700       0x10 /opt/microchip/xc32/v4.35/bin/bin/../../lib/gcc/pic32mx/8.3.1/../../../../pic32mx/lib/fpu64/libc-musl.a(vsprintf.o)
 .gnu.attributes
                0x0000000000000710       0x10 /opt/microchip/xc32/v4.35/bin/bin/../../lib/gcc/pic32mx/8.3.1/../../../../pic32mx/lib/fpu64/libc-musl.a(strchr.o)
 .gnu.attributes
                0x0000000000000720       0x10 /opt/microchip/xc32/v4.35/bin/bin/../../lib/gcc/pic32mx/8.3.1/../../../../pic32mx/lib/fpu64/libc-musl.a(strchrnul.o)
 .gnu.attributes
                0x0000000000000730       0x10 /opt/microchip/xc32/v4.35/bin/bin/../../lib/gcc/pic32mx/8.3.1/../../../../pic32mx/lib/fpu64/libc-musl.a(strnlen.o)
 .gnu.attributes
                0x0000000000000740       0x10 /opt/microchip/xc32/v4.35/bin/bin/../../lib/gcc/pic32mx/8.3.1/../../../../pic32mx/lib/fpu64/libc-musl.a(gmtime.o)
 .gnu.attributes
                0x0000000000000750       0x10 /opt/microchip/xc32/v4.35/bin/bin/../../lib/gcc/pic32mx/8.3.1/../../../../pic32mx/lib/fpu64/libc-musl.a(gmtime_r.o)
 .gnu.attributes
                0x0000000000000760       0x10 /opt/microchip/xc32/v4.35/bin/bin/../../lib/gcc/pic32mx/8.3.1/../../../../pic32mx/lib/fpu64/libc-musl.a(mktime.o)
 .gnu.attributes
                0x0000000000000770       0x10 /opt/microchip/xc32/v4.35/bin/bin/../../lib/gcc/pic32mx/8.3.1/../../../../pic32mx/lib/fpu64/libc-musl.a(vfprintf.o)
 .gnu.attributes
                0x0000000000000780       0x10 /opt/microchip/xc32/v4.35/bin/bin/../../lib/gcc/pic32mx/8.3.1/../../../../pic32mx/lib/fpu64/libc-musl.a(memchr.o)
 .gnu.attributes
                0x0000000000000790       0x10 /opt/microchip/xc32/v4.35/bin/bin/../../lib/gcc/pic32mx/8.3.1/../../../../pic32mx/lib/fpu64/libc-musl.a(__tm_to_secs.o)
 .gnu.attributes
                0x00000000000007a0       0x10 /opt/microchip/xc32/v4.35/bin/bin/../../lib/gcc/pic32mx/8.3.1/../../../../pic32mx/lib/fpu64/libc-musl.a(__year_to_secs.o)
 .gnu.attributes
                0x00000000000007b0       0x10 /opt/microchip/xc32/v4.35/bin/bin/../../lib/gcc/pic32mx/8.3.1/../../../../pic32mx/lib/fpu64/libc-musl.a(__secs_to_tm.o)
 .gnu.attributes
                0x00000000000007c0       0x10 /opt/microchip/xc32/v4.35/bin/bin/../../lib/gcc/pic32mx/8.3.1/../../../../pic32mx/lib/fpu64/libc-musl.a(__io_fmt_needed.o)
 .gnu.attributes
                0x00000000000007d0       0x10 /opt/microchip/xc32/v4.35/bin/bin/../../lib/gcc/pic32mx/8.3.1/../../../../pic32mx/lib/fpu64/libc-musl.a(__pop_float.o)
 .gnu.attributes
                0x00000000000007e0       0x10 /opt/microchip/xc32/v4.35/bin/bin/../../lib/gcc/pic32mx/8.3.1/../../../../pic32mx/lib/fpu64/libc-musl.a(__pop_int.o)
 .gnu.attributes
                0x00000000000007f0       0x10 /opt/microchip/xc32/v4.35/bin/bin/../../lib/gcc/pic32mx/8.3.1/../../../../pic32mx/lib/fpu64/libc-musl.a(__pop_ptr.o)
 .gnu.attributes
                0x0000000000000800       0x10 /opt/microchip/xc32/v4.35/bin/bin/../../lib/gcc/pic32mx/8.3.1/../../../../pic32mx/lib/fpu64/libc-musl.a(__printf_core.o)
 .gnu.attributes
                0x0000000000000810       0x10 /opt/microchip/xc32/v4.35/bin/bin/../../lib/gcc/pic32mx/8.3.1/../../../../pic32mx/lib/fpu64/libc-musl.a(atoi.o)
 .gnu.attributes
                0x0000000000000820       0x10 /opt/microchip/xc32/v4.35/bin/bin/../../lib/gcc/pic32mx/8.3.1/../../../../pic32mx/lib/fpu64/libc-musl.a(__month_to_secs.o)
 .gnu.attributes
                0x0000000000000830       0x10 /opt/microchip/xc32/v4.35/bin/bin/../../lib/gcc/pic32mx/8.3.1/../../../../pic32mx/lib/fpu64/libc-musl.a(tolower.o)
 .gnu.attributes
                0x0000000000000840       0x10 /opt/microchip/xc32/v4.35/bin/bin/../../lib/gcc/pic32mx/8.3.1/../../../../pic32mx/lib/fpu64/libc-musl.a(__fmt_a.o)
 .gnu.attributes
                0x0000000000000850       0x10 /opt/microchip/xc32/v4.35/bin/bin/../../lib/gcc/pic32mx/8.3.1/../../../../pic32mx/lib/fpu64/libc-musl.a(__fmt_d.o)
 .gnu.attributes
                0x0000000000000860       0x10 /opt/microchip/xc32/v4.35/bin/bin/../../lib/gcc/pic32mx/8.3.1/../../../../pic32mx/lib/fpu64/libc-musl.a(__fmt_fp.o)
 .gnu.attributes
                0x0000000000000870       0x10 /opt/microchip/xc32/v4.35/bin/bin/../../lib/gcc/pic32mx/8.3.1/../../../../pic32mx/lib/fpu64/libc-musl.a(__fmt_o.o)
 .gnu.attributes
                0x0000000000000880       0x10 /opt/microchip/xc32/v4.35/bin/bin/../../lib/gcc/pic32mx/8.3.1/../../../../pic32mx/lib/fpu64/libc-musl.a(__fmt_s.o)
 .gnu.attributes
                0x0000000000000890       0x10 /opt/microchip/xc32/v4.35/bin/bin/../../lib/gcc/pic32mx/8.3.1/../../../../pic32mx/lib/fpu64/libc-musl.a(__fmt_u.o)
 .gnu.attributes
                0x00000000000008a0       0x10 /opt/microchip/xc32/v4.35/bin/bin/../../lib/gcc/pic32mx/8.3.1/../../../../pic32mx/lib/fpu64/libc-musl.a(__fmt_x.o)
 .gnu.attributes
                0x00000000000008b0       0x10 /opt/microchip/xc32/v4.35/bin/bin/../../lib/gcc/pic32mx/8.3.1/../../../../pic32mx/lib/fpu64/libc-musl.a(strcpy.o)
 .gnu.attributes
                0x00000000000008c0       0x10 /opt/microchip/xc32/v4.35/bin/bin/../../lib/gcc/pic32mx/8.3.1/../../../../pic32mx/lib/fpu64/libc-musl.a(toupper.o)
 .gnu.attributes
                0x00000000000008d0       0x10 /opt/microchip/xc32/v4.35/bin/bin/../../lib/gcc/pic32mx/8.3.1/../../../../pic32mx/lib/fpu64/libc-musl.a(__cvt_u.o)
 .gnu.attributes
                0x00000000000008e0       0x10 /opt/microchip/xc32/v4.35/bin/bin/../../lib/gcc/pic32mx/8.3.1/../../../../pic32mx/lib/fpu64/libc-musl.a(stpcpy.o)
 .gnu.attributes
                0x00000000000008f0       0x10 /opt/microchip/xc32/v4.35/bin/bin/../../lib/gcc/pic32mx/8.3.1/../../../../pic32mx/lib/fpu64/libm-musl.a(floor.o)
 .gnu.attributes
                0x0000000000000900       0x10 /opt/microchip/xc32/v4.35/bin/bin/../../lib/gcc/pic32mx/8.3.1/../../../../pic32mx/lib/fpu64/libm-musl.a(fma.o)
 .gnu.attributes
                0x0000000000000910       0x10 /opt/microchip/xc32/v4.35/bin/bin/../../lib/gcc/pic32mx/8.3.1/../../../../pic32mx/lib/fpu64/libm-musl.a(scalbn.o)
 .gnu.attributes
                0x0000000000000920       0x10 /opt/microchip/xc32/v4.35/bin/bin/../../lib/gcc/pic32mx/8.3.1/fpu64/libgcc.a(_lshrdi3.o)
 .gnu.attributes
                0x0000000000000930       0x10 /opt/microchip/xc32/v4.35/bin/bin/../../lib/gcc/pic32mx/8.3.1/fpu64/libgcc.a(_ashldi3.o)
 .gnu.attributes
                0x0000000000000940       0x10 /opt/microchip/xc32/v4.35/bin/bin/../../lib/gcc/pic32mx/8.3.1/fpu64/libgcc.a(_divdi3.o)
 .gnu.attributes
                0x0000000000000950       0x10 /opt/microchip/xc32/v4.35/bin/bin/../../lib/gcc/pic32mx/8.3.1/fpu64/libgcc.a(_moddi3.o)
 .gnu.attributes
                0x0000000000000960       0x10 /opt/microchip/xc32/v4.35/bin/bin/../../lib/gcc/pic32mx/8.3.1/fpu64/libgcc.a(_umoddi3.o)
 .gnu.attributes
                0x0000000000000970       0x10 /opt/microchip/xc32/v4.35/bin/bin/../../lib/gcc/pic32mx/8.3.1/../../../../pic32mx/lib/fpu64/libpic32.a(errno.o)
 .gnu.attributes
                0x0000000000000980       0x10 /opt/microchip/xc32/v4.35/bin/bin/../../lib/gcc/pic32mx/8.3.1/../../../../pic32mx/lib/fpu64/libpic32.a(pic32_data_init_clear.o)
 .gnu.attributes
                0x0000000000000990       0x10 /opt/microchip/xc32/v4.35/bin/bin/../../lib/gcc/pic32mx/8.3.1/../../../../pic32mx/lib/fpu64/libpic32.a(pic32_data_init_copy.o)
                0x000000009d000000                PROVIDE (__pic32_init_cache_program_base_addr = 0x9d000000)
                0x0000000080000000                PROVIDE (__pic32_init_cache_data_base_addr = 0x80000000)
                0x00000000d0000000                PROVIDE (__pic32_init_sqi_kseg2_virtual_base_addr = 0xd0000000)
                0x0000000030000000                PROVIDE (__pic32_init_sqi_kseg2_physical_base_addr = 0x30000000)
                0x000000000000001f                PROVIDE (__pic32_init_sqi_kseg2_entrylo0_bitset = 0x1f)
                0x00000000d0000000                __pic32_tlb_0_entryhi = __pic32_init_sqi_kseg2_virtual_base_addr
                0x0000000000c0001f                __pic32_tlb_0_entrylo0 = ((__pic32_init_sqi_kseg2_physical_base_addr >> 0x6) | __pic32_init_sqi_kseg2_entrylo0_bitset)
                0x0000000000c4001f                __pic32_tlb_0_entrylo1 = (__pic32_tlb_0_entrylo0 | ((__pic32_init_sqi_kseg2_physical_base_addr + 0x1000000) >> 0x6))
                0x00000000d2000000                __pic32_tlb_1_entryhi = (__pic32_init_sqi_kseg2_virtual_base_addr + 0x2000000)
                0x0000000000c8001f                __pic32_tlb_1_entrylo0 = (((__pic32_init_sqi_kseg2_physical_base_addr + 0x2000000) >> 0x6) | __pic32_init_sqi_kseg2_entrylo0_bitset)
                0x0000000000cc001f                __pic32_tlb_1_entrylo1 = (__pic32_tlb_1_entrylo0 | 0x40000)
                0x00000000f0000000                PROVIDE (__pic32_init_sqi_kseg3_virtual_base_addr = 0xf0000000)
                0x0000000030000000                PROVIDE (__pic32_init_sqi_kseg3_physical_base_addr = 0x30000000)
                0x0000000000000017                PROVIDE (__pic32_init_sqi_kseg3_entrylo0_bitset = 0x17)
                0x00000000f0000000                __pic32_tlb_2_entryhi = __pic32_init_sqi_kseg3_virtual_base_addr
                0x0000000000c00017                __pic32_tlb_2_entrylo0 = ((__pic32_init_sqi_kseg3_physical_base_addr >> 0x6) | __pic32_init_sqi_kseg3_entrylo0_bitset)
                0x0000000000c40017                __pic32_tlb_2_entrylo1 = (__pic32_tlb_2_entrylo0 | ((__pic32_init_sqi_kseg3_physical_base_addr + 0x1000000) >> 0x6))
                0x00000000f2000000                __pic32_tlb_3_entryhi = (__pic32_init_sqi_kseg3_virtual_base_addr + 0x2000000)
                0x0000000000c80017                __pic32_tlb_3_entrylo0 = (((__pic32_init_sqi_kseg3_physical_base_addr + 0x2000000) >> 0x6) | __pic32_init_sqi_kseg3_entrylo0_bitset)
                0x0000000000cc0017                __pic32_tlb_3_entrylo1 = (__pic32_tlb_3_entrylo0 | 0x40000)
                0x00000000c0000000                PROVIDE (__pic32_init_ebi_kseg2_virtual_base_addr = 0xc0000000)
                0x0000000020000000                PROVIDE (__pic32_init_ebi_kseg2_physical_base_addr = 0x20000000)
                0x000000000000001f                PROVIDE (__pic32_init_ebi_kseg2_entrylo0_bitset = 0x1f)
                0x00000000c0000000                __pic32_tlb_4_entryhi = __pic32_init_ebi_kseg2_virtual_base_addr
                0x000000000080001f                __pic32_tlb_4_entrylo0 = ((__pic32_init_ebi_kseg2_physical_base_addr >> 0x6) | __pic32_init_ebi_kseg2_entrylo0_bitset)
                0x000000000084001f                __pic32_tlb_4_entrylo1 = (__pic32_tlb_4_entrylo0 | ((__pic32_init_ebi_kseg2_physical_base_addr + 0x1000000) >> 0x6))
                0x00000000c2000000                __pic32_tlb_5_entryhi = (__pic32_init_ebi_kseg2_virtual_base_addr + 0x2000000)
                0x000000000088001f                __pic32_tlb_5_entrylo0 = (((__pic32_init_ebi_kseg2_physical_base_addr + 0x2000000) >> 0x6) | __pic32_init_ebi_kseg2_entrylo0_bitset)
                0x00000000008c001f                __pic32_tlb_5_entrylo1 = (__pic32_tlb_5_entrylo0 | 0x40000)
                0x00000000e0000000                PROVIDE (__pic32_init_ebi_kseg3_virtual_base_addr = 0xe0000000)
                0x0000000020000000                PROVIDE (__pic32_init_ebi_kseg3_physical_base_addr = 0x20000000)
                0x0000000000000017                PROVIDE (__pic32_init_ebi_kseg3_entrylo0_bitset = 0x17)
                0x00000000e0000000                __pic32_tlb_6_entryhi = __pic32_init_ebi_kseg3_virtual_base_addr
                0x0000000000800017                __pic32_tlb_6_entrylo0 = ((__pic32_init_ebi_kseg3_physical_base_addr >> 0x6) | __pic32_init_ebi_kseg3_entrylo0_bitset)
                0x0000000000840017                __pic32_tlb_6_entrylo1 = (__pic32_tlb_6_entrylo0 | ((__pic32_init_ebi_kseg3_physical_base_addr + 0x1000000) >> 0x6))
                0x00000000e2000000                __pic32_tlb_7_entryhi = (__pic32_init_ebi_kseg3_virtual_base_addr + 0x2000000)
                0x0000000000880017                __pic32_tlb_7_entrylo0 = (((__pic32_init_ebi_kseg3_physical_base_addr + 0x2000000) >> 0x6) | __pic32_init_ebi_kseg3_entrylo0_bitset)
                0x00000000008c0017                __pic32_tlb_7_entrylo1 = (__pic32_tlb_7_entrylo0 | 0x40000)

.tlb_init_values
                0x00000000bfc006c8       0x60
                0x00000000bfc006c8                . = ALIGN (0x4)
                0x00000000bfc006c8                __pic32_tlb_init_values_begin = ABSOLUTE (.)
                0x00000000bfc006c8        0x4 LONG 0xd0000000 __pic32_tlb_0_entryhi
                0x00000000bfc006cc        0x4 LONG 0xc0001f __pic32_tlb_0_entrylo0
                0x00000000bfc006d0        0x4 LONG 0xc4001f __pic32_tlb_0_entrylo1
                0x00000000bfc006d4        0x4 LONG 0xd2000000 __pic32_tlb_1_entryhi
                0x00000000bfc006d8        0x4 LONG 0xc8001f __pic32_tlb_1_entrylo0
                0x00000000bfc006dc        0x4 LONG 0xcc001f __pic32_tlb_1_entrylo1
                0x00000000bfc006e0        0x4 LONG 0xf0000000 __pic32_tlb_2_entryhi
                0x00000000bfc006e4        0x4 LONG 0xc00017 __pic32_tlb_2_entrylo0
                0x00000000bfc006e8        0x4 LONG 0xc40017 __pic32_tlb_2_entrylo1
                0x00000000bfc006ec        0x4 LONG 0xf2000000 __pic32_tlb_3_entryhi
                0x00000000bfc006f0        0x4 LONG 0xc80017 __pic32_tlb_3_entrylo0
                0x00000000bfc006f4        0x4 LONG 0xcc0017 __pic32_tlb_3_entrylo1
                0x00000000bfc006f8        0x4 LONG 0xc0000000 __pic32_tlb_4_entryhi
                0x00000000bfc006fc        0x4 LONG 0x80001f __pic32_tlb_4_entrylo0
                0x00000000bfc00700        0x4 LONG 0x84001f __pic32_tlb_4_entrylo1
                0x00000000bfc00704        0x4 LONG 0xc2000000 __pic32_tlb_5_entryhi
                0x00000000bfc00708        0x4 LONG 0x88001f __pic32_tlb_5_entrylo0
                0x00000000bfc0070c        0x4 LONG 0x8c001f __pic32_tlb_5_entrylo1
                0x00000000bfc00710        0x4 LONG 0xe0000000 __pic32_tlb_6_entryhi
                0x00000000bfc00714        0x4 LONG 0x800017 __pic32_tlb_6_entrylo0
                0x00000000bfc00718        0x4 LONG 0x840017 __pic32_tlb_6_entrylo1
                0x00000000bfc0071c        0x4 LONG 0xe2000000 __pic32_tlb_7_entryhi
                0x00000000bfc00720        0x4 LONG 0x880017 __pic32_tlb_7_entrylo0
                0x00000000bfc00724        0x4 LONG 0x8c0017 __pic32_tlb_7_entrylo1
                0x00000000bfc00728                __pic32_tlb_init_values_end = ABSOLUTE (.)
                0x00000000bfc006d0                __pic32_tlb_init_values_count = 0x8
                0x0000000000000200                _min_heap_size = 0x200
LOAD /tmp/ccyN9zno.o
LOAD /tmp/cc6wiA0f.o
LOAD /tmp/ccNcFTSD.o
LOAD /tmp/ccmzy7S2.o
LOAD /opt/microchip/xc32/v4.35/bin/bin/../../lib/gcc/pic32mx/8.3.1/../../../../pic32mx/lib/fpu64/pic32_software_reset.o
LOAD /opt/microchip/xc32/v4.35/bin/bin/../../lib/gcc/pic32mx/8.3.1/fpu64/libgcc.a
START GROUP
LOAD /opt/microchip/xc32/v4.35/bin/bin/../../lib/gcc/pic32mx/8.3.1/../../../../pic32mx/lib/fpu64/libpic32.a
LOAD /opt/microchip/xc32/v4.35/bin/bin/../../lib/gcc/pic32mx/8.3.1/../../../../pic32mx/lib/fpu64/libdebug.a
LOAD /opt/microchip/xc32/v4.35/bin/bin/../../lib/gcc/pic32mx/8.3.1/../../../../pic32mx/lib/fpu64/libc-musl.a
LOAD /opt/microchip/xc32/v4.35/bin/bin/../../lib/gcc/pic32mx/8.3.1/../../../../pic32mx/lib/fpu64/libm-musl.a
LOAD /opt/microchip/xc32/v4.35/bin/bin/../../lib/gcc/pic32mx/8.3.1/../../../../pic32mx/lib/fpu64/libdspr2.a
LOAD /opt/microchip/xc32/v4.35/bin/bin/../../lib/gcc/pic32mx/8.3.1/../../../../pic32mx/lib/fpu64/libdsp.a
LOAD /opt/microchip/xc32/v4.35/bin/bin/../../lib/gcc/pic32mx/8.3.1/fpu64/libgcc.a
END GROUP
LOAD /opt/microchip/xc32/v4.35/bin/bin/../../lib/gcc/pic32mx/8.3.1/fpu64/libgcc.a
OUTPUT(dist/default/production/curiositybasic.X.production.elf elf32-tradlittlemips)
LOAD data_init
LOAD stack

.reginfo        0x0000000000000000       0x18
 .reginfo       0x0000000000000000       0x18 /opt/microchip/xc32/v4.35/bin/bin/../../lib/gcc/pic32mx/8.3.1/../../../../pic32mx/lib/fpu64/debug-exception-return.o

__xc_reference_data
                0x0000000000000000       0xd8
 __xc_reference_data
                0x0000000000000000       0x24 /opt/microchip/xc32/v4.35/bin/bin/../../lib/gcc/pic32mx/8.3.1/../../../../pic32mx/lib/fpu64/libc-musl.a(vfprintf.o)
                0x0000000000000000                __vfprintf_needs_fmt
 __xc_reference_data
                0x0000000000000024       0xb4 /opt/microchip/xc32/v4.35/bin/bin/../../lib/gcc/pic32mx/8.3.1/../../../../pic32mx/lib/fpu64/libc-musl.a(__io_fmt_needed.o)
                0x0000000000000024                __io_fmt_needed

.stack          0x0000000080008820      0x400
 .stack         0x0000000080008820      0x400 stack

.__vector_offset_BF810540_data
                0x00000000bf810540      0x178
 .__vector_offset_BF810540_data
                0x00000000bf810540      0x178 /tmp/ccNcFTSD.o

.__vector_offset_BF810740_data
                0x00000000bf810740       0xfc
 .__vector_offset_BF810740_data
                0x00000000bf810740       0xfc /tmp/ccNcFTSD.o

.__vector_offset_BF8106F4_data
                0x00000000bf8106f4       0x40
 .__vector_offset_BF8106F4_data
                0x00000000bf8106f4       0x40 /tmp/ccNcFTSD.o

.__vector_offset_BF8106D8_data
                0x00000000bf8106d8       0x18
 .__vector_offset_BF8106D8_data
                0x00000000bf8106d8       0x18 /tmp/ccNcFTSD.o

.__vector_offset_BF810874_data
                0x00000000bf810874       0x18
 .__vector_offset_BF810874_data
                0x00000000bf810874       0x18 /tmp/ccNcFTSD.o

.__vector_offset_BF810858_data
                0x00000000bf810858       0x14
 .__vector_offset_BF810858_data
                0x00000000bf810858       0x14 /tmp/ccNcFTSD.o

.__vector_offset_BF810840_data
                0x00000000bf810840        0xc
 .__vector_offset_BF810840_data
                0x00000000bf810840        0xc /tmp/ccNcFTSD.o

.__vector_offset_BF810850_data
                0x00000000bf810850        0x4
 .__vector_offset_BF810850_data
                0x00000000bf810850        0x4 /tmp/ccNcFTSD.o

.__vector_offset_BF810894_data
                0x00000000bf810894        0x4
 .__vector_offset_BF810894_data
                0x00000000bf810894        0x4 /tmp/ccNcFTSD.o

.COHERENTBSS$   0x00000000a00001a0       0x5c
 .COHERENTBSS$  0x00000000a00001a0       0x5c build/default/production/_ext/2070931557/drv_spi.o

.data           0x0000000080000200       0x12
 .data          0x0000000080000200       0x12 build/default/production/_ext/1667573777/m2m_hif.o

.data           0x000000008000019c        0x4
 .data          0x000000008000019c        0x4 build/default/production/_ext/404212886/FreeRTOS_tasks.o
                0x000000008000019c                uxTopUsedPriority

.data%z1        0x0000000000000000        0x0
 .data          0x0000000000000000        0x0 /opt/microchip/xc32/v4.35/bin/bin/../../lib/gcc/pic32mx/8.3.1/../../../../pic32mx/lib/fpu64/libpic32.a(pic32_data_init_copy.o)

.data%z2        0x0000000000000000        0x0
 .data          0x0000000000000000        0x0 /opt/microchip/xc32/v4.35/bin/bin/../../lib/gcc/pic32mx/8.3.1/../../../../pic32mx/lib/fpu64/libpic32.a(pic32_data_init_clear.o)

.data%z3        0x0000000000000000        0x0
 .data          0x0000000000000000        0x0 /opt/microchip/xc32/v4.35/bin/bin/../../lib/gcc/pic32mx/8.3.1/../../../../pic32mx/lib/fpu64/libpic32.a(errno.o)

.data%z4        0x0000000000000000        0x0
 .data          0x0000000000000000        0x0 /opt/microchip/xc32/v4.35/bin/bin/../../lib/gcc/pic32mx/8.3.1/fpu64/libgcc.a(_umoddi3.o)

.data%z5        0x0000000000000000        0x0
 .data          0x0000000000000000        0x0 /opt/microchip/xc32/v4.35/bin/bin/../../lib/gcc/pic32mx/8.3.1/fpu64/libgcc.a(_moddi3.o)

.data%z6        0x0000000000000000        0x0
 .data          0x0000000000000000        0x0 /opt/microchip/xc32/v4.35/bin/bin/../../lib/gcc/pic32mx/8.3.1/fpu64/libgcc.a(_divdi3.o)

.data%z7        0x0000000000000000        0x0
 .data          0x0000000000000000        0x0 /opt/microchip/xc32/v4.35/bin/bin/../../lib/gcc/pic32mx/8.3.1/fpu64/libgcc.a(_ashldi3.o)

.data%z8        0x0000000000000000        0x0
 .data          0x0000000000000000        0x0 /opt/microchip/xc32/v4.35/bin/bin/../../lib/gcc/pic32mx/8.3.1/fpu64/libgcc.a(_lshrdi3.o)

.data%z9        0x0000000000000000        0x0
 .data          0x0000000000000000        0x0 /opt/microchip/xc32/v4.35/bin/bin/../../lib/gcc/pic32mx/8.3.1/../../../../pic32mx/lib/fpu64/libm-musl.a(scalbn.o)

.data%z10       0x0000000000000000        0x0
 .data          0x0000000000000000        0x0 /opt/microchip/xc32/v4.35/bin/bin/../../lib/gcc/pic32mx/8.3.1/../../../../pic32mx/lib/fpu64/libm-musl.a(fma.o)

.data%z11       0x0000000000000000        0x0
 .data          0x0000000000000000        0x0 /opt/microchip/xc32/v4.35/bin/bin/../../lib/gcc/pic32mx/8.3.1/../../../../pic32mx/lib/fpu64/libm-musl.a(floor.o)

.data%z12       0x0000000000000000        0x0
 .data          0x0000000000000000        0x0 /opt/microchip/xc32/v4.35/bin/bin/../../lib/gcc/pic32mx/8.3.1/../../../../pic32mx/lib/fpu64/libc-musl.a(stpcpy.o)

.data%z13       0x0000000000000000        0x0
 .data          0x0000000000000000        0x0 /opt/microchip/xc32/v4.35/bin/bin/../../lib/gcc/pic32mx/8.3.1/../../../../pic32mx/lib/fpu64/libc-musl.a(__cvt_u.o)

.data%z14       0x0000000000000000        0x0
 .data          0x0000000000000000        0x0 /opt/microchip/xc32/v4.35/bin/bin/../../lib/gcc/pic32mx/8.3.1/../../../../pic32mx/lib/fpu64/libc-musl.a(toupper.o)

.data%z15       0x0000000000000000        0x0
 .data          0x0000000000000000        0x0 /opt/microchip/xc32/v4.35/bin/bin/../../lib/gcc/pic32mx/8.3.1/../../../../pic32mx/lib/fpu64/libc-musl.a(strcpy.o)

.data%z16       0x0000000000000000        0x0
 .data          0x0000000000000000        0x0 /opt/microchip/xc32/v4.35/bin/bin/../../lib/gcc/pic32mx/8.3.1/../../../../pic32mx/lib/fpu64/libc-musl.a(__fmt_x.o)

.data%z17       0x0000000000000000        0x0
 .data          0x0000000000000000        0x0 /opt/microchip/xc32/v4.35/bin/bin/../../lib/gcc/pic32mx/8.3.1/../../../../pic32mx/lib/fpu64/libc-musl.a(__fmt_u.o)

.data%z18       0x0000000000000000        0x0
 .data          0x0000000000000000        0x0 /opt/microchip/xc32/v4.35/bin/bin/../../lib/gcc/pic32mx/8.3.1/../../../../pic32mx/lib/fpu64/libc-musl.a(__fmt_s.o)

.data%z19       0x0000000000000000        0x0
 .data          0x0000000000000000        0x0 /opt/microchip/xc32/v4.35/bin/bin/../../lib/gcc/pic32mx/8.3.1/../../../../pic32mx/lib/fpu64/libc-musl.a(__fmt_o.o)

.data%z20       0x0000000000000000        0x0
 .data          0x0000000000000000        0x0 /opt/microchip/xc32/v4.35/bin/bin/../../lib/gcc/pic32mx/8.3.1/../../../../pic32mx/lib/fpu64/libc-musl.a(__fmt_fp.o)

.data%z21       0x0000000000000000        0x0
 .data          0x0000000000000000        0x0 /opt/microchip/xc32/v4.35/bin/bin/../../lib/gcc/pic32mx/8.3.1/../../../../pic32mx/lib/fpu64/libc-musl.a(__fmt_d.o)

.data%z22       0x0000000000000000        0x0
 .data          0x0000000000000000        0x0 /opt/microchip/xc32/v4.35/bin/bin/../../lib/gcc/pic32mx/8.3.1/../../../../pic32mx/lib/fpu64/libc-musl.a(__fmt_a.o)

.data%z23       0x0000000000000000        0x0
 .data          0x0000000000000000        0x0 /opt/microchip/xc32/v4.35/bin/bin/../../lib/gcc/pic32mx/8.3.1/../../../../pic32mx/lib/fpu64/libc-musl.a(tolower.o)

.data%z24       0x0000000000000000        0x0
 .data          0x0000000000000000        0x0 /opt/microchip/xc32/v4.35/bin/bin/../../lib/gcc/pic32mx/8.3.1/../../../../pic32mx/lib/fpu64/libc-musl.a(__month_to_secs.o)

.data%z25       0x0000000000000000        0x0
 .data          0x0000000000000000        0x0 /opt/microchip/xc32/v4.35/bin/bin/../../lib/gcc/pic32mx/8.3.1/../../../../pic32mx/lib/fpu64/libc-musl.a(atoi.o)

.data%z26       0x0000000000000000        0x0
 .data          0x0000000000000000        0x0 /opt/microchip/xc32/v4.35/bin/bin/../../lib/gcc/pic32mx/8.3.1/../../../../pic32mx/lib/fpu64/libc-musl.a(__printf_core.o)

.data%z27       0x0000000000000000        0x0
 .data          0x0000000000000000        0x0 /opt/microchip/xc32/v4.35/bin/bin/../../lib/gcc/pic32mx/8.3.1/../../../../pic32mx/lib/fpu64/libc-musl.a(__pop_ptr.o)

.data%z28       0x0000000000000000        0x0
 .data          0x0000000000000000        0x0 /opt/microchip/xc32/v4.35/bin/bin/../../lib/gcc/pic32mx/8.3.1/../../../../pic32mx/lib/fpu64/libc-musl.a(__pop_int.o)

.data%z29       0x0000000000000000        0x0
 .data          0x0000000000000000        0x0 /opt/microchip/xc32/v4.35/bin/bin/../../lib/gcc/pic32mx/8.3.1/../../../../pic32mx/lib/fpu64/libc-musl.a(__pop_float.o)

.data%z30       0x0000000000000000        0x0
 .data          0x0000000000000000        0x0 /opt/microchip/xc32/v4.35/bin/bin/../../lib/gcc/pic32mx/8.3.1/../../../../pic32mx/lib/fpu64/libc-musl.a(__io_fmt_needed.o)

.data%z31       0x0000000000000000        0x0
 .data          0x0000000000000000        0x0 /opt/microchip/xc32/v4.35/bin/bin/../../lib/gcc/pic32mx/8.3.1/../../../../pic32mx/lib/fpu64/libc-musl.a(__secs_to_tm.o)

.data%z32       0x0000000000000000        0x0
 .data          0x0000000000000000        0x0 /opt/microchip/xc32/v4.35/bin/bin/../../lib/gcc/pic32mx/8.3.1/../../../../pic32mx/lib/fpu64/libc-musl.a(__year_to_secs.o)

.data%z33       0x0000000000000000        0x0
 .data          0x0000000000000000        0x0 /opt/microchip/xc32/v4.35/bin/bin/../../lib/gcc/pic32mx/8.3.1/../../../../pic32mx/lib/fpu64/libc-musl.a(__tm_to_secs.o)

.data%z34       0x0000000000000000        0x0
 .data          0x0000000000000000        0x0 /opt/microchip/xc32/v4.35/bin/bin/../../lib/gcc/pic32mx/8.3.1/../../../../pic32mx/lib/fpu64/libc-musl.a(memchr.o)

.data%z35       0x0000000000000000        0x0
 .data          0x0000000000000000        0x0 /opt/microchip/xc32/v4.35/bin/bin/../../lib/gcc/pic32mx/8.3.1/../../../../pic32mx/lib/fpu64/libc-musl.a(vfprintf.o)

.data%z36       0x0000000000000000        0x0
 .data          0x0000000000000000        0x0 /opt/microchip/xc32/v4.35/bin/bin/../../lib/gcc/pic32mx/8.3.1/../../../../pic32mx/lib/fpu64/libc-musl.a(mktime.o)

.data%z37       0x0000000000000000        0x0
 .data          0x0000000000000000        0x0 /opt/microchip/xc32/v4.35/bin/bin/../../lib/gcc/pic32mx/8.3.1/../../../../pic32mx/lib/fpu64/libc-musl.a(gmtime_r.o)

.data%z38       0x0000000000000000        0x0
 .data          0x0000000000000000        0x0 /opt/microchip/xc32/v4.35/bin/bin/../../lib/gcc/pic32mx/8.3.1/../../../../pic32mx/lib/fpu64/libc-musl.a(gmtime.o)

.data%z39       0x0000000000000000        0x0
 .data          0x0000000000000000        0x0 /opt/microchip/xc32/v4.35/bin/bin/../../lib/gcc/pic32mx/8.3.1/../../../../pic32mx/lib/fpu64/libc-musl.a(strnlen.o)

.data%z40       0x0000000000000000        0x0
 .data          0x0000000000000000        0x0 /opt/microchip/xc32/v4.35/bin/bin/../../lib/gcc/pic32mx/8.3.1/../../../../pic32mx/lib/fpu64/libc-musl.a(strchrnul.o)

.data%z41       0x0000000000000000        0x0
 .data          0x0000000000000000        0x0 /opt/microchip/xc32/v4.35/bin/bin/../../lib/gcc/pic32mx/8.3.1/../../../../pic32mx/lib/fpu64/libc-musl.a(strchr.o)

.data%z42       0x0000000000000000        0x0
 .data          0x0000000000000000        0x0 /opt/microchip/xc32/v4.35/bin/bin/../../lib/gcc/pic32mx/8.3.1/../../../../pic32mx/lib/fpu64/libc-musl.a(vsprintf.o)

.data%z43       0x0000000000000000        0x0
 .data          0x0000000000000000        0x0 /opt/microchip/xc32/v4.35/bin/bin/../../lib/gcc/pic32mx/8.3.1/../../../../pic32mx/lib/fpu64/libc-musl.a(sprintf.o)

.data%z44       0x0000000000000000        0x0
 .data          0x0000000000000000        0x0 /opt/microchip/xc32/v4.35/bin/bin/../../lib/gcc/pic32mx/8.3.1/../../../../pic32mx/lib/fpu64/libc-musl.a(vsnprintf.o)

.data%z45       0x0000000000000000        0x0
 .data          0x0000000000000000        0x0 /opt/microchip/xc32/v4.35/bin/bin/../../lib/gcc/pic32mx/8.3.1/../../../../pic32mx/lib/fpu64/libpic32.a(defaultinterrupt.o)

.data%z46       0x0000000000000000        0x0
 .data          0x0000000000000000        0x0 /opt/microchip/xc32/v4.35/bin/bin/../../lib/gcc/pic32mx/8.3.1/../../../../pic32mx/lib/fpu64/libpic32.a(simple-tlb-refill-exception.o)

.data%z47       0x0000000000000000        0x0
 .data          0x0000000000000000        0x0 /opt/microchip/xc32/v4.35/bin/bin/../../lib/gcc/pic32mx/8.3.1/../../../../pic32mx/lib/fpu64/libpic32.a(cache-err-exception.o)

.data%z48       0x0000000000000000        0x0
 .data          0x0000000000000000        0x0 /opt/microchip/xc32/v4.35/bin/bin/../../lib/gcc/pic32mx/8.3.1/../../../../pic32mx/lib/fpu64/libpic32.a(general-exception.o)

.data%z49       0x0000000000000000        0x0
 .data          0x0000000000000000        0x0 /opt/microchip/xc32/v4.35/bin/bin/../../lib/gcc/pic32mx/8.3.1/../../../../pic32mx/lib/fpu64/libpic32.a(pic32_init_tlb_ebi_sqi.o)

.data%z50       0x0000000000000000        0x0
 .data          0x0000000000000000        0x0 /opt/microchip/xc32/v4.35/bin/bin/../../lib/gcc/pic32mx/8.3.1/../../../../pic32mx/lib/fpu64/libpic32.a(pic32_init_cache.o)

.data%z51       0x0000000000000000        0x0
 .data          0x0000000000000000        0x0 /opt/microchip/xc32/v4.35/bin/bin/../../lib/gcc/pic32mx/8.3.1/../../../../pic32mx/lib/fpu64/libpic32.a(pic32_data_init_core.o)

.data%z52       0x0000000000000000        0x0
 .data          0x0000000000000000        0x0 /opt/microchip/xc32/v4.35/bin/bin/../../lib/gcc/pic32mx/8.3.1/../../../../pic32mx/lib/fpu64/libpic32.a(default-nmi-handler.o)

.data%z53       0x0000000000000000        0x0
 .data          0x0000000000000000        0x0 /opt/microchip/xc32/v4.35/bin/bin/../../lib/gcc/pic32mx/8.3.1/../../../../pic32mx/lib/fpu64/libpic32.a(default-on-bootstrap.o)

.data%z54       0x0000000000000000        0x0
 .data          0x0000000000000000        0x0 /opt/microchip/xc32/v4.35/bin/bin/../../lib/gcc/pic32mx/8.3.1/../../../../pic32mx/lib/fpu64/libpic32.a(default-on-reset.o)

.data%z55       0x0000000000000000        0x0
 .data          0x0000000000000000        0x0 /opt/microchip/xc32/v4.35/bin/bin/../../lib/gcc/pic32mx/8.3.1/../../../../pic32mx/lib/fpu64/libpic32.a(strlen.o)

.data%z56       0x0000000000000000        0x0
 .data          0x0000000000000000        0x0 /opt/microchip/xc32/v4.35/bin/bin/../../lib/gcc/pic32mx/8.3.1/../../../../pic32mx/lib/fpu64/libpic32.a(memset.o)

.data%z57       0x0000000000000000        0x0
 .data          0x0000000000000000        0x0 /opt/microchip/xc32/v4.35/bin/bin/../../lib/gcc/pic32mx/8.3.1/../../../../pic32mx/lib/fpu64/libpic32.a(memcpy.o)

.data%z58       0x0000000000000000        0x0
 .data          0x0000000000000000        0x0 /opt/microchip/xc32/v4.35/bin/bin/../../lib/gcc/pic32mx/8.3.1/../../../../pic32mx/lib/fpu64/libpic32.a(memcmp.o)

.data%z59       0x0000000000000000        0x0
 .data          0x0000000000000000        0x0 /opt/microchip/xc32/v4.35/bin/bin/../../lib/gcc/pic32mx/8.3.1/fpu64/libgcc.a(_udivdi3.o)

.data%z60       0x0000000000000000        0x0
 .data          0x0000000000000000        0x0 /opt/microchip/xc32/v4.35/bin/bin/../../lib/gcc/pic32mx/8.3.1/../../../../pic32mx/lib/fpu64/pic32_software_reset.o

.data%z61       0x0000000000000000        0x0
 .data          0x0000000000000000        0x0 /tmp/ccmzy7S2.o

.data%z62       0x0000000000000000        0x0
 .data          0x0000000000000000        0x0 /tmp/ccNcFTSD.o

.data%z63       0x0000000000000000        0x0
 .data          0x0000000000000000        0x0 /tmp/cc6wiA0f.o

.data%z64       0x0000000000000000        0x0
 .data          0x0000000000000000        0x0 /tmp/ccyN9zno.o

.data%z65       0x0000000000000000        0x0
 .data          0x0000000000000000        0x0 build/default/production/example.o

.data%z66       0x0000000000000000        0x0
 .data          0x0000000000000000        0x0 build/default/production/_ext/1667573777/nmasic.o

.data%z67       0x0000000000000000        0x0
 .data          0x0000000000000000        0x0 build/default/production/_ext/651226651/htpt_task.o

.data%z68       0x0000000000000000        0x0
 .data          0x0000000000000000        0x0 build/default/production/_ext/1954180691/wdrv_winc_assoc.o

.data%z69       0x0000000000000000        0x0
 .data          0x0000000000000000        0x0 build/default/production/_ext/651226651/security.o

.data%z70       0x0000000000000000        0x0
 .data          0x0000000000000000        0x0 build/default/production/_ext/1068697685/wdrv_winc_gpio.o

.data%z71       0x0000000000000000        0x0
 .data          0x0000000000000000        0x0 build/default/production/_ext/1667573777/m2m_ssl.o

.data%z72       0x0000000000000000        0x0
 .data          0x0000000000000000        0x0 build/default/production/_ext/651226651/gap.o

.data%z73       0x0000000000000000        0x0
 .data          0x0000000000000000        0x0 build/default/production/_ext/1954180691/wdrv_winc_socket.o

.data%z74       0x0000000000000000        0x0
 .data          0x0000000000000000        0x0 build/default/production/_ext/2070931557/drv_spi.o

.data%z75       0x0000000000000000        0x0
 .data          0x0000000000000000        0x0 build/default/production/_ext/651226651/dbg_task.o

.data%z76       0x0000000000000000        0x0
 .data          0x0000000000000000        0x0 build/default/production/_ext/1954180691/wdrv_winc_ssl.o

.data%z77       0x0000000000000000        0x0
 .data          0x0000000000000000        0x0 build/default/production/_ext/651226651/gapm_task.o

.data%z78       0x0000000000000000        0x0
 .data          0x0000000000000000        0x0 build/default/production/_ext/1667573777/m2m_flash.o

.data%z79       0x0000000000000000        0x0
 .data          0x0000000000000000        0x0 build/default/production/_ext/1636284884/nm_common.o

.data%z80       0x0000000000000000        0x0
 .data          0x0000000000000000        0x0 build/default/production/_ext/2094051164/inet_ntop.o

.data%z81       0x0000000000000000        0x0
 .data          0x0000000000000000        0x0 build/default/production/_ext/651226651/htpt.o

.data%z82       0x0000000000000000        0x0
 .data          0x0000000000000000        0x0 build/default/production/_ext/1954180691/wdrv_winc_enterprise.o

.data%z83       0x0000000000000000        0x0
 .data          0x0000000000000000        0x0 build/default/production/_ext/1954180691/wdrv_winc_custie.o

.data%z84       0x0000000000000000        0x0
 .data          0x0000000000000000        0x0 build/default/production/_ext/651226651/gattm_task.o

.data%z85       0x0000000000000000        0x0
 .data          0x0000000000000000        0x0 build/default/production/_ext/1954180691/wdrv_winc_bssfind.o

.data%z86       0x0000000000000000        0x0
 .data          0x0000000000000000        0x0 build/default/production/_ext/1306418660/platform.o

.data%z87       0x0000000000000000        0x0
 .data          0x0000000000000000        0x0 build/default/production/_ext/1954180691/wdrv_winc_authctx.o

.data%z88       0x0000000000000000        0x0
 .data          0x0000000000000000        0x0 build/default/production/_ext/2018374705/wdrv_winc_osal.o

.data%z89       0x0000000000000000        0x0
 .data          0x0000000000000000        0x0 build/default/production/_ext/1667573777/m2m_ota.o

.data%z90       0x0000000000000000        0x0
 .data          0x0000000000000000        0x0 build/default/production/_ext/2094051164/inet_addr.o

.data%z91       0x0000000000000000        0x0
 .data          0x0000000000000000        0x0 build/default/production/_ext/1667573777/nmdrv.o

.data%z92       0x0000000000000000        0x0
 .data          0x0000000000000000        0x0 build/default/production/_ext/1954180691/wdrv_winc_ble.o

.data%z93       0x0000000000000000        0x0
 .data          0x0000000000000000        0x0 build/default/production/_ext/1667573777/nmspi.o

.data%z94       0x0000000000000000        0x0
 .data          0x0000000000000000        0x0 build/default/production/_ext/1954180691/wdrv_winc_softap.o

.data%z95       0x0000000000000000        0x0
 .data          0x0000000000000000        0x0 build/default/production/_ext/1954180691/wdrv_winc_httpprovctx.o

.data%z96       0x0000000000000000        0x0
 .data          0x0000000000000000        0x0 build/default/production/_ext/651226651/gatt_server.o

.data%z97       0x0000000000000000        0x0
 .data          0x0000000000000000        0x0 build/default/production/_ext/1954180691/wdrv_winc_wps.o

.data%z98       0x0000000000000000        0x0
 .data          0x0000000000000000        0x0 build/default/production/_ext/1667573777/nmbus.o

.data%z99       0x0000000000000000        0x0
 .data          0x0000000000000000        0x0 build/default/production/_ext/1667573777/m2m_wifi.o

.data%z100      0x0000000000000000        0x0
 .data          0x0000000000000000        0x0 build/default/production/_ext/1697030576/wdrv_winc_spi.o

.data%z101      0x0000000000000000        0x0
 .data          0x0000000000000000        0x0 build/default/production/_ext/2094051164/socket.o

.data%z102      0x0000000000000000        0x0
 .data          0x0000000000000000        0x0 build/default/production/_ext/1908349716/spi_flash.o

.data%z103      0x0000000000000000        0x0
 .data          0x0000000000000000        0x0 build/default/production/_ext/651226651/wifiprov_task.o

.data%z104      0x0000000000000000        0x0
 .data          0x0000000000000000        0x0 build/default/production/_ext/1954180691/wdrv_winc_sta.o

.data%z105      0x0000000000000000        0x0
 .data          0x0000000000000000        0x0 build/default/production/_ext/651226651/error.o

.data%z106      0x0000000000000000        0x0
 .data          0x0000000000000000        0x0 build/default/production/_ext/651226651/gapc_task.o

.data%z107      0x0000000000000000        0x0
 .data          0x0000000000000000        0x0 build/default/production/_ext/651226651/interface.o

.data%z108      0x0000000000000000        0x0
 .data          0x0000000000000000        0x0 build/default/production/_ext/1068697685/wdrv_winc_eint.o

.data%z109      0x0000000000000000        0x0
 .data          0x0000000000000000        0x0 build/default/production/_ext/1667573777/m2m_periph.o

.data%z110      0x0000000000000000        0x0
 .data          0x0000000000000000        0x0 build/default/production/_ext/651226651/gattc_task.o

.data%z111      0x0000000000000000        0x0
 .data          0x0000000000000000        0x0 build/default/production/_ext/1954180691/wdrv_winc_systime.o

.data%z112      0x0000000000000000        0x0
 .data          0x0000000000000000        0x0 build/default/production/_ext/1954180691/wdrv_winc_powersave.o

.data%z113      0x0000000000000000        0x0
 .data          0x0000000000000000        0x0 build/default/production/_ext/298189674/plib_spi1_master.o

.data%z114      0x0000000000000000        0x0
 .data          0x0000000000000000        0x0 build/default/production/_ext/651226651/gatt_client.o

.data%z115      0x0000000000000000        0x0
 .data          0x0000000000000000        0x0 build/default/production/_ext/1954180691/wdrv_winc_bssctx.o

.data%z116      0x0000000000000000        0x0
 .data          0x0000000000000000        0x0 build/default/production/_ext/651226651/event.o

.data%z117      0x0000000000000000        0x0
 .data          0x0000000000000000        0x0 build/default/production/_ext/1954180691/wdrv_winc_nvm.o

.data%z118      0x0000000000000000        0x0
 .data          0x0000000000000000        0x0 build/default/production/_ext/1865161661/plib_dmac.o

.data%z119      0x0000000000000000        0x0
 .data          0x0000000000000000        0x0 build/default/production/_ext/1954180691/wdrv_winc.o

.data%z120      0x0000000000000000        0x0
 .data          0x0000000000000000        0x0 build/default/production/_ext/1360937237/main.o

.data%z121      0x0000000000000000        0x0
 .data          0x0000000000000000        0x0 build/default/production/_ext/1360937237/app.o

.data%z122      0x0000000000000000        0x0
 .data          0x0000000000000000        0x0 build/default/production/_ext/404212886/list.o

.data%z123      0x0000000000000000        0x0
 .data          0x0000000000000000        0x0 build/default/production/_ext/404212886/event_groups.o

.data%z124      0x0000000000000000        0x0
 .data          0x0000000000000000        0x0 build/default/production/_ext/404212886/stream_buffer.o

.data%z125      0x0000000000000000        0x0
 .data          0x0000000000000000        0x0 build/default/production/_ext/404212886/timers.o

.data%z126      0x0000000000000000        0x0
 .data          0x0000000000000000        0x0 build/default/production/_ext/404212886/queue.o

.data%z127      0x0000000000000000        0x0
 .data          0x0000000000000000        0x0 build/default/production/_ext/404212886/croutine.o

.data%z128      0x0000000000000000        0x0
 .data          0x0000000000000000        0x0 build/default/production/_ext/951553246/port.o

.data%z129      0x0000000000000000        0x0
 .data          0x0000000000000000        0x0 build/default/production/_ext/951553246/port_asm.o

.data%z130      0x0000000000000000        0x0
 .data          0x0000000000000000        0x0 build/default/production/_ext/1665200909/heap_1.o

.data%z131      0x0000000000000000        0x0
 .data          0x0000000000000000        0x0 build/default/production/_ext/1171490990/exceptions.o

.data%z132      0x0000000000000000        0x0
 .data          0x0000000000000000        0x0 build/default/production/_ext/1171490990/interrupts_a.o

.data%z133      0x0000000000000000        0x0
 .data          0x0000000000000000        0x0 build/default/production/_ext/1171490990/initialization.o

.data%z134      0x0000000000000000        0x0
 .data          0x0000000000000000        0x0 build/default/production/_ext/1171490990/tasks.o

.data%z135      0x0000000000000000        0x0
 .data          0x0000000000000000        0x0 build/default/production/_ext/1171490990/interrupts.o

.data%z136      0x0000000000000000        0x0
 .data          0x0000000000000000        0x0 build/default/production/_ext/1171490990/freertos_hooks.o

.data%z137      0x0000000000000000        0x0
 .data          0x0000000000000000        0x0 build/default/production/_ext/101884895/sys_time.o

.data%z138      0x0000000000000000        0x0
 .data          0x0000000000000000        0x0 build/default/production/_ext/1881668453/sys_int.o

.data%z139      0x0000000000000000        0x0
 .data          0x0000000000000000        0x0 build/default/production/_ext/14461671/sys_dma.o

.data%z140      0x0000000000000000        0x0
 .data          0x0000000000000000        0x0 build/default/production/_ext/944882569/sys_debug.o

.data%z141      0x0000000000000000        0x0
 .data          0x0000000000000000        0x0 build/default/production/_ext/1832805299/sys_console.o

.data%z142      0x0000000000000000        0x0
 .data          0x0000000000000000        0x0 build/default/production/_ext/1832805299/sys_console_uart.o

.data%z143      0x0000000000000000        0x0
 .data          0x0000000000000000        0x0 build/default/production/_ext/163028504/xc32_monitor.o

.data%z144      0x0000000000000000        0x0
 .data          0x0000000000000000        0x0 build/default/production/_ext/1865657120/plib_uart2.o

.data%z145      0x0000000000000000        0x0
 .data          0x0000000000000000        0x0 build/default/production/_ext/60181895/plib_tmr8.o

.data%z146      0x0000000000000000        0x0
 .data          0x0000000000000000        0x0 build/default/production/_ext/60181895/plib_tmr9.o

.data%z147      0x0000000000000000        0x0
 .data          0x0000000000000000        0x0 build/default/production/_ext/1865254177/plib_gpio.o

.data%z148      0x0000000000000000        0x0
 .data          0x0000000000000000        0x0 build/default/production/_ext/1865200349/plib_evic.o

.data%z149      0x0000000000000000        0x0
 .data          0x0000000000000000        0x0 build/default/production/_ext/1249264884/plib_coretimer.o

.data%z150      0x0000000000000000        0x0
 .data          0x0000000000000000        0x0 build/default/production/_ext/60165520/plib_clk.o

.data%z151      0x0000000000000000        0x0
 .data          0x0000000000000000        0x0 build/default/production/_ext/1529399856/osal_freertos.o

.data%z152      0x0000000000000000        0x0
 .data          0x0000000000000000        0x0 /opt/microchip/xc32/v4.35/bin/bin/../../lib/gcc/pic32mx/8.3.1/../../../../pic32mx/lib/fpu64/debug-exception-return.o

.bss            0x0000000080000214     0x6d60
 .bss           0x0000000080000214     0x6d60 build/default/production/_ext/1665200909/heap_1.o

.bss            0x0000000080006f78      0xc4c
 .bss           0x0000000080006f78      0x800 build/default/production/_ext/951553246/port.o
                0x0000000080006f78                xISRStack
 .bss           0x0000000080007778      0x44c build/default/production/_ext/651226651/interface.o
                0x0000000080007778                interface_send_msg

.bss            0x0000000080007bc4      0x25c
 .bss           0x0000000080007bc4      0x144 build/default/production/_ext/1865657120/plib_uart2.o
 .bss           0x0000000080007d08      0x118 build/default/production/_ext/1171490990/initialization.o
                0x0000000080007e0c                sysObj

.bss            0x0000000080007e20      0x114
 .bss           0x0000000080007e20      0x114 build/default/production/_ext/1954180691/wdrv_winc.o

.bss            0x0000000080007f38      0x1c8
 .bss           0x0000000080007f38       0xf4 build/default/production/_ext/101884895/sys_time.o
 .bss           0x000000008000802c       0xd4 build/default/production/_ext/1832805299/sys_console.o

.bss            0x0000000080008100      0x188
 .bss           0x0000000080008100       0xc8 build/default/production/_ext/404212886/FreeRTOS_tasks.o
 .bss           0x00000000800081c8       0xc0 build/default/production/_ext/2094051164/socket.o
                0x00000000800081c8                gastrSockets

.bss            0x0000000080008288      0x150
 .bss           0x0000000080008288       0xbc build/default/production/_ext/651226651/gap.o
                0x0000000080008288                device
 .bss           0x0000000080008344       0x94 build/default/production/_ext/1865161661/plib_dmac.o

.bss            0x00000000800083d8       0xf4
 .bss           0x00000000800083d8       0x7c build/default/production/_ext/651226651/gapc_task.o
 .bss           0x0000000080008454       0x78 build/default/production/_ext/651226651/event.o

.bss            0x00000000800084cc       0x8c
 .bss           0x00000000800084cc       0x60 build/default/production/_ext/14461671/sys_dma.o
 .bss           0x000000008000852c       0x2c /opt/microchip/xc32/v4.35/bin/bin/../../lib/gcc/pic32mx/8.3.1/../../../../pic32mx/lib/fpu64/libc-musl.a(gmtime.o)

.bss            0x0000000080008558       0x4c
 .bss           0x0000000080008558       0x28 build/default/production/_ext/298189674/plib_spi1_master.o
 .bss           0x0000000080008580       0x24 build/default/production/_ext/1667573777/m2m_hif.o
                0x0000000080008580                gstrHifCxt

.bss            0x00000000800085a4       0x34
 .bss           0x00000000800085a4       0x20 build/default/production/_ext/1697030576/wdrv_winc_spi.o
 .bss           0x00000000800085c4       0x14 build/default/production/_ext/1667573777/m2m_wifi.o

.bss            0x00000000800085d8       0x1c
 .bss           0x00000000800085d8       0x10 build/default/production/_ext/1306418660/platform.o
 .bss           0x00000000800085e8        0xc build/default/production/_ext/1865254177/plib_gpio.o

.bss            0x00000000800085f4        0xc
 .bss           0x00000000800085f4        0xc build/default/production/_ext/1832805299/sys_console_uart.o

.bss.errno      0x0000000080006f74        0x4
 .bss.errno     0x0000000080006f74        0x4 /opt/microchip/xc32/v4.35/bin/bin/../../lib/gcc/pic32mx/8.3.1/../../../../pic32mx/lib/fpu64/libpic32.a(errno.o)
                0x0000000080006f74                errno

.bss%z153       0x0000000000000000        0x0
 .bss           0x0000000000000000        0x0 /opt/microchip/xc32/v4.35/bin/bin/../../lib/gcc/pic32mx/8.3.1/../../../../pic32mx/lib/fpu64/libpic32.a(pic32_data_init_copy.o)

.bss%z154       0x0000000000000000        0x0
 .bss           0x0000000000000000        0x0 /opt/microchip/xc32/v4.35/bin/bin/../../lib/gcc/pic32mx/8.3.1/../../../../pic32mx/lib/fpu64/libpic32.a(pic32_data_init_clear.o)

.bss%z155       0x0000000000000000        0x0
 .bss           0x0000000000000000        0x0 /opt/microchip/xc32/v4.35/bin/bin/../../lib/gcc/pic32mx/8.3.1/../../../../pic32mx/lib/fpu64/libpic32.a(errno.o)

.bss%z156       0x0000000000000000        0x0
 .bss           0x0000000000000000        0x0 /opt/microchip/xc32/v4.35/bin/bin/../../lib/gcc/pic32mx/8.3.1/fpu64/libgcc.a(_umoddi3.o)

.bss%z157       0x0000000000000000        0x0
 .bss           0x0000000000000000        0x0 /opt/microchip/xc32/v4.35/bin/bin/../../lib/gcc/pic32mx/8.3.1/fpu64/libgcc.a(_moddi3.o)

.bss%z158       0x0000000000000000        0x0
 .bss           0x0000000000000000        0x0 /opt/microchip/xc32/v4.35/bin/bin/../../lib/gcc/pic32mx/8.3.1/fpu64/libgcc.a(_divdi3.o)

.bss%z159       0x0000000000000000        0x0
 .bss           0x0000000000000000        0x0 /opt/microchip/xc32/v4.35/bin/bin/../../lib/gcc/pic32mx/8.3.1/fpu64/libgcc.a(_ashldi3.o)

.bss%z160       0x0000000000000000        0x0
 .bss           0x0000000000000000        0x0 /opt/microchip/xc32/v4.35/bin/bin/../../lib/gcc/pic32mx/8.3.1/fpu64/libgcc.a(_lshrdi3.o)

.bss%z161       0x0000000000000000        0x0
 .bss           0x0000000000000000        0x0 /opt/microchip/xc32/v4.35/bin/bin/../../lib/gcc/pic32mx/8.3.1/../../../../pic32mx/lib/fpu64/libm-musl.a(scalbn.o)

.bss%z162       0x0000000000000000        0x0
 .bss           0x0000000000000000        0x0 /opt/microchip/xc32/v4.35/bin/bin/../../lib/gcc/pic32mx/8.3.1/../../../../pic32mx/lib/fpu64/libm-musl.a(fma.o)

.bss%z163       0x0000000000000000        0x0
 .bss           0x0000000000000000        0x0 /opt/microchip/xc32/v4.35/bin/bin/../../lib/gcc/pic32mx/8.3.1/../../../../pic32mx/lib/fpu64/libm-musl.a(floor.o)

.bss%z164       0x0000000000000000        0x0
 .bss           0x0000000000000000        0x0 /opt/microchip/xc32/v4.35/bin/bin/../../lib/gcc/pic32mx/8.3.1/../../../../pic32mx/lib/fpu64/libc-musl.a(stpcpy.o)

.bss%z165       0x0000000000000000        0x0
 .bss           0x0000000000000000        0x0 /opt/microchip/xc32/v4.35/bin/bin/../../lib/gcc/pic32mx/8.3.1/../../../../pic32mx/lib/fpu64/libc-musl.a(__cvt_u.o)

.bss%z166       0x0000000000000000        0x0
 .bss           0x0000000000000000        0x0 /opt/microchip/xc32/v4.35/bin/bin/../../lib/gcc/pic32mx/8.3.1/../../../../pic32mx/lib/fpu64/libc-musl.a(toupper.o)

.bss%z167       0x0000000000000000        0x0
 .bss           0x0000000000000000        0x0 /opt/microchip/xc32/v4.35/bin/bin/../../lib/gcc/pic32mx/8.3.1/../../../../pic32mx/lib/fpu64/libc-musl.a(strcpy.o)

.bss%z168       0x0000000000000000        0x0
 .bss           0x0000000000000000        0x0 /opt/microchip/xc32/v4.35/bin/bin/../../lib/gcc/pic32mx/8.3.1/../../../../pic32mx/lib/fpu64/libc-musl.a(__fmt_x.o)

.bss%z169       0x0000000000000000        0x0
 .bss           0x0000000000000000        0x0 /opt/microchip/xc32/v4.35/bin/bin/../../lib/gcc/pic32mx/8.3.1/../../../../pic32mx/lib/fpu64/libc-musl.a(__fmt_u.o)

.bss%z170       0x0000000000000000        0x0
 .bss           0x0000000000000000        0x0 /opt/microchip/xc32/v4.35/bin/bin/../../lib/gcc/pic32mx/8.3.1/../../../../pic32mx/lib/fpu64/libc-musl.a(__fmt_s.o)

.bss%z171       0x0000000000000000        0x0
 .bss           0x0000000000000000        0x0 /opt/microchip/xc32/v4.35/bin/bin/../../lib/gcc/pic32mx/8.3.1/../../../../pic32mx/lib/fpu64/libc-musl.a(__fmt_o.o)

.bss%z172       0x0000000000000000        0x0
 .bss           0x0000000000000000        0x0 /opt/microchip/xc32/v4.35/bin/bin/../../lib/gcc/pic32mx/8.3.1/../../../../pic32mx/lib/fpu64/libc-musl.a(__fmt_fp.o)

.bss%z173       0x0000000000000000        0x0
 .bss           0x0000000000000000        0x0 /opt/microchip/xc32/v4.35/bin/bin/../../lib/gcc/pic32mx/8.3.1/../../../../pic32mx/lib/fpu64/libc-musl.a(__fmt_d.o)

.bss%z174       0x0000000000000000        0x0
 .bss           0x0000000000000000        0x0 /opt/microchip/xc32/v4.35/bin/bin/../../lib/gcc/pic32mx/8.3.1/../../../../pic32mx/lib/fpu64/libc-musl.a(__fmt_a.o)

.bss%z175       0x0000000000000000        0x0
 .bss           0x0000000000000000        0x0 /opt/microchip/xc32/v4.35/bin/bin/../../lib/gcc/pic32mx/8.3.1/../../../../pic32mx/lib/fpu64/libc-musl.a(tolower.o)

.bss%z176       0x0000000000000000        0x0
 .bss           0x0000000000000000        0x0 /opt/microchip/xc32/v4.35/bin/bin/../../lib/gcc/pic32mx/8.3.1/../../../../pic32mx/lib/fpu64/libc-musl.a(__month_to_secs.o)

.bss%z177       0x0000000000000000        0x0
 .bss           0x0000000000000000        0x0 /opt/microchip/xc32/v4.35/bin/bin/../../lib/gcc/pic32mx/8.3.1/../../../../pic32mx/lib/fpu64/libc-musl.a(atoi.o)

.bss%z178       0x0000000000000000        0x0
 .bss           0x0000000000000000        0x0 /opt/microchip/xc32/v4.35/bin/bin/../../lib/gcc/pic32mx/8.3.1/../../../../pic32mx/lib/fpu64/libc-musl.a(__printf_core.o)

.bss%z179       0x0000000000000000        0x0
 .bss           0x0000000000000000        0x0 /opt/microchip/xc32/v4.35/bin/bin/../../lib/gcc/pic32mx/8.3.1/../../../../pic32mx/lib/fpu64/libc-musl.a(__pop_ptr.o)

.bss%z180       0x0000000000000000        0x0
 .bss           0x0000000000000000        0x0 /opt/microchip/xc32/v4.35/bin/bin/../../lib/gcc/pic32mx/8.3.1/../../../../pic32mx/lib/fpu64/libc-musl.a(__pop_int.o)

.bss%z181       0x0000000000000000        0x0
 .bss           0x0000000000000000        0x0 /opt/microchip/xc32/v4.35/bin/bin/../../lib/gcc/pic32mx/8.3.1/../../../../pic32mx/lib/fpu64/libc-musl.a(__pop_float.o)

.bss%z182       0x0000000000000000        0x0
 .bss           0x0000000000000000        0x0 /opt/microchip/xc32/v4.35/bin/bin/../../lib/gcc/pic32mx/8.3.1/../../../../pic32mx/lib/fpu64/libc-musl.a(__io_fmt_needed.o)

.bss%z183       0x0000000000000000        0x0
 .bss           0x0000000000000000        0x0 /opt/microchip/xc32/v4.35/bin/bin/../../lib/gcc/pic32mx/8.3.1/../../../../pic32mx/lib/fpu64/libc-musl.a(__secs_to_tm.o)

.bss%z184       0x0000000000000000        0x0
 .bss           0x0000000000000000        0x0 /opt/microchip/xc32/v4.35/bin/bin/../../lib/gcc/pic32mx/8.3.1/../../../../pic32mx/lib/fpu64/libc-musl.a(__year_to_secs.o)

.bss%z185       0x0000000000000000        0x0
 .bss           0x0000000000000000        0x0 /opt/microchip/xc32/v4.35/bin/bin/../../lib/gcc/pic32mx/8.3.1/../../../../pic32mx/lib/fpu64/libc-musl.a(__tm_to_secs.o)

.bss%z186       0x0000000000000000        0x0
 .bss           0x0000000000000000        0x0 /opt/microchip/xc32/v4.35/bin/bin/../../lib/gcc/pic32mx/8.3.1/../../../../pic32mx/lib/fpu64/libc-musl.a(memchr.o)

.bss%z187       0x0000000000000000        0x0
 .bss           0x0000000000000000        0x0 /opt/microchip/xc32/v4.35/bin/bin/../../lib/gcc/pic32mx/8.3.1/../../../../pic32mx/lib/fpu64/libc-musl.a(vfprintf.o)

.bss%z188       0x0000000000000000        0x0
 .bss           0x0000000000000000        0x0 /opt/microchip/xc32/v4.35/bin/bin/../../lib/gcc/pic32mx/8.3.1/../../../../pic32mx/lib/fpu64/libc-musl.a(mktime.o)

.bss%z189       0x0000000000000000        0x0
 .bss           0x0000000000000000        0x0 /opt/microchip/xc32/v4.35/bin/bin/../../lib/gcc/pic32mx/8.3.1/../../../../pic32mx/lib/fpu64/libc-musl.a(gmtime_r.o)

.bss%z190       0x0000000000000000        0x0
 .bss           0x0000000000000000        0x0 /opt/microchip/xc32/v4.35/bin/bin/../../lib/gcc/pic32mx/8.3.1/../../../../pic32mx/lib/fpu64/libc-musl.a(strnlen.o)

.bss%z191       0x0000000000000000        0x0
 .bss           0x0000000000000000        0x0 /opt/microchip/xc32/v4.35/bin/bin/../../lib/gcc/pic32mx/8.3.1/../../../../pic32mx/lib/fpu64/libc-musl.a(strchrnul.o)

.bss%z192       0x0000000000000000        0x0
 .bss           0x0000000000000000        0x0 /opt/microchip/xc32/v4.35/bin/bin/../../lib/gcc/pic32mx/8.3.1/../../../../pic32mx/lib/fpu64/libc-musl.a(strchr.o)

.bss%z193       0x0000000000000000        0x0
 .bss           0x0000000000000000        0x0 /opt/microchip/xc32/v4.35/bin/bin/../../lib/gcc/pic32mx/8.3.1/../../../../pic32mx/lib/fpu64/libc-musl.a(vsprintf.o)

.bss%z194       0x0000000000000000        0x0
 .bss           0x0000000000000000        0x0 /opt/microchip/xc32/v4.35/bin/bin/../../lib/gcc/pic32mx/8.3.1/../../../../pic32mx/lib/fpu64/libc-musl.a(sprintf.o)

.bss%z195       0x0000000000000000        0x0
 .bss           0x0000000000000000        0x0 /opt/microchip/xc32/v4.35/bin/bin/../../lib/gcc/pic32mx/8.3.1/../../../../pic32mx/lib/fpu64/libc-musl.a(vsnprintf.o)

.bss%z196       0x0000000000000000        0x0
 .bss           0x0000000000000000        0x0 /opt/microchip/xc32/v4.35/bin/bin/../../lib/gcc/pic32mx/8.3.1/../../../../pic32mx/lib/fpu64/libpic32.a(defaultinterrupt.o)

.bss%z197       0x0000000000000000        0x0
 .bss           0x0000000000000000        0x0 /opt/microchip/xc32/v4.35/bin/bin/../../lib/gcc/pic32mx/8.3.1/../../../../pic32mx/lib/fpu64/libpic32.a(simple-tlb-refill-exception.o)

.bss%z198       0x0000000000000000        0x0
 .bss           0x0000000000000000        0x0 /opt/microchip/xc32/v4.35/bin/bin/../../lib/gcc/pic32mx/8.3.1/../../../../pic32mx/lib/fpu64/libpic32.a(cache-err-exception.o)

.bss%z199       0x0000000000000000        0x0
 .bss           0x0000000000000000        0x0 /opt/microchip/xc32/v4.35/bin/bin/../../lib/gcc/pic32mx/8.3.1/../../../../pic32mx/lib/fpu64/libpic32.a(general-exception.o)

.bss%z200       0x0000000000000000        0x0
 .bss           0x0000000000000000        0x0 /opt/microchip/xc32/v4.35/bin/bin/../../lib/gcc/pic32mx/8.3.1/../../../../pic32mx/lib/fpu64/libpic32.a(pic32_init_tlb_ebi_sqi.o)

.bss%z201       0x0000000000000000        0x0
 .bss           0x0000000000000000        0x0 /opt/microchip/xc32/v4.35/bin/bin/../../lib/gcc/pic32mx/8.3.1/../../../../pic32mx/lib/fpu64/libpic32.a(pic32_init_cache.o)

.bss%z202       0x0000000000000000        0x0
 .bss           0x0000000000000000        0x0 /opt/microchip/xc32/v4.35/bin/bin/../../lib/gcc/pic32mx/8.3.1/../../../../pic32mx/lib/fpu64/libpic32.a(pic32_data_init_core.o)

.bss%z203       0x0000000000000000        0x0
 .bss           0x0000000000000000        0x0 /opt/microchip/xc32/v4.35/bin/bin/../../lib/gcc/pic32mx/8.3.1/../../../../pic32mx/lib/fpu64/libpic32.a(default-nmi-handler.o)

.bss%z204       0x0000000000000000        0x0
 .bss           0x0000000000000000        0x0 /opt/microchip/xc32/v4.35/bin/bin/../../lib/gcc/pic32mx/8.3.1/../../../../pic32mx/lib/fpu64/libpic32.a(default-on-bootstrap.o)

.bss%z205       0x0000000000000000        0x0
 .bss           0x0000000000000000        0x0 /opt/microchip/xc32/v4.35/bin/bin/../../lib/gcc/pic32mx/8.3.1/../../../../pic32mx/lib/fpu64/libpic32.a(default-on-reset.o)

.bss%z206       0x0000000000000000        0x0
 .bss           0x0000000000000000        0x0 /opt/microchip/xc32/v4.35/bin/bin/../../lib/gcc/pic32mx/8.3.1/../../../../pic32mx/lib/fpu64/libpic32.a(strlen.o)

.bss%z207       0x0000000000000000        0x0
 .bss           0x0000000000000000        0x0 /opt/microchip/xc32/v4.35/bin/bin/../../lib/gcc/pic32mx/8.3.1/../../../../pic32mx/lib/fpu64/libpic32.a(memset.o)

.bss%z208       0x0000000000000000        0x0
 .bss           0x0000000000000000        0x0 /opt/microchip/xc32/v4.35/bin/bin/../../lib/gcc/pic32mx/8.3.1/../../../../pic32mx/lib/fpu64/libpic32.a(memcpy.o)

.bss%z209       0x0000000000000000        0x0
 .bss           0x0000000000000000        0x0 /opt/microchip/xc32/v4.35/bin/bin/../../lib/gcc/pic32mx/8.3.1/../../../../pic32mx/lib/fpu64/libpic32.a(memcmp.o)

.bss%z210       0x0000000000000000        0x0
 .bss           0x0000000000000000        0x0 /opt/microchip/xc32/v4.35/bin/bin/../../lib/gcc/pic32mx/8.3.1/fpu64/libgcc.a(_udivdi3.o)

.bss%z211       0x0000000000000000        0x0
 .bss           0x0000000000000000        0x0 /opt/microchip/xc32/v4.35/bin/bin/../../lib/gcc/pic32mx/8.3.1/../../../../pic32mx/lib/fpu64/pic32_software_reset.o

.bss%z212       0x0000000000000000        0x0
 .bss           0x0000000000000000        0x0 /tmp/ccmzy7S2.o

.bss%z213       0x0000000000000000        0x0
 .bss           0x0000000000000000        0x0 /tmp/ccNcFTSD.o

.bss%z214       0x0000000000000000        0x0
 .bss           0x0000000000000000        0x0 /tmp/cc6wiA0f.o

.bss%z215       0x0000000000000000        0x0
 .bss           0x0000000000000000        0x0 /tmp/ccyN9zno.o

.bss%z216       0x0000000000000000        0x0
 .bss           0x0000000000000000        0x0 build/default/production/example.o

.bss%z217       0x0000000000000000        0x0
 .bss           0x0000000000000000        0x0 build/default/production/_ext/1667573777/nmasic.o

.bss%z218       0x0000000000000000        0x0
 .bss           0x0000000000000000        0x0 build/default/production/_ext/651226651/htpt_task.o

.bss%z219       0x0000000000000000        0x0
 .bss           0x0000000000000000        0x0 build/default/production/_ext/1954180691/wdrv_winc_assoc.o

.bss%z220       0x0000000000000000        0x0
 .bss           0x0000000000000000        0x0 build/default/production/_ext/651226651/security.o

.bss%z221       0x0000000000000000        0x0
 .bss           0x0000000000000000        0x0 build/default/production/_ext/1068697685/wdrv_winc_gpio.o

.bss%z222       0x0000000000000000        0x0
 .bss           0x0000000000000000        0x0 build/default/production/_ext/1667573777/m2m_ssl.o

.bss%z223       0x0000000000000000        0x0
 .bss           0x0000000000000000        0x0 build/default/production/_ext/1954180691/wdrv_winc_socket.o

.bss%z224       0x0000000000000000        0x0
 .bss           0x0000000000000000        0x0 build/default/production/_ext/2070931557/drv_spi.o

.bss%z225       0x0000000000000000        0x0
 .bss           0x0000000000000000        0x0 build/default/production/_ext/651226651/dbg_task.o

.bss%z226       0x0000000000000000        0x0
 .bss           0x0000000000000000        0x0 build/default/production/_ext/1954180691/wdrv_winc_ssl.o

.bss%z227       0x0000000000000000        0x0
 .bss           0x0000000000000000        0x0 build/default/production/_ext/651226651/gapm_task.o

.bss%z228       0x0000000000000000        0x0
 .bss           0x0000000000000000        0x0 build/default/production/_ext/1667573777/m2m_flash.o

.bss%z229       0x0000000000000000        0x0
 .bss           0x0000000000000000        0x0 build/default/production/_ext/1636284884/nm_common.o

.bss%z230       0x0000000000000000        0x0
 .bss           0x0000000000000000        0x0 build/default/production/_ext/2094051164/inet_ntop.o

.bss%z231       0x0000000000000000        0x0
 .bss           0x0000000000000000        0x0 build/default/production/_ext/651226651/htpt.o

.bss%z232       0x0000000000000000        0x0
 .bss           0x0000000000000000        0x0 build/default/production/_ext/1954180691/wdrv_winc_enterprise.o

.bss%z233       0x0000000000000000        0x0
 .bss           0x0000000000000000        0x0 build/default/production/_ext/1954180691/wdrv_winc_custie.o

.bss%z234       0x0000000000000000        0x0
 .bss           0x0000000000000000        0x0 build/default/production/_ext/651226651/gattm_task.o

.bss%z235       0x0000000000000000        0x0
 .bss           0x0000000000000000        0x0 build/default/production/_ext/1954180691/wdrv_winc_bssfind.o

.bss%z236       0x0000000000000000        0x0
 .bss           0x0000000000000000        0x0 build/default/production/_ext/1954180691/wdrv_winc_authctx.o

.bss%z237       0x0000000000000000        0x0
 .bss           0x0000000000000000        0x0 build/default/production/_ext/2018374705/wdrv_winc_osal.o

.bss%z238       0x0000000000000000        0x0
 .bss           0x0000000000000000        0x0 build/default/production/_ext/1667573777/m2m_ota.o

.bss%z239       0x0000000000000000        0x0
 .bss           0x0000000000000000        0x0 build/default/production/_ext/2094051164/inet_addr.o

.bss%z240       0x0000000000000000        0x0
 .bss           0x0000000000000000        0x0 build/default/production/_ext/1667573777/nmdrv.o

.bss%z241       0x0000000000000000        0x0
 .bss           0x0000000000000000        0x0 build/default/production/_ext/1954180691/wdrv_winc_ble.o

.bss%z242       0x0000000000000000        0x0
 .bss           0x0000000000000000        0x0 build/default/production/_ext/1667573777/nmspi.o

.bss%z243       0x0000000000000000        0x0
 .bss           0x0000000000000000        0x0 build/default/production/_ext/1954180691/wdrv_winc_softap.o

.bss%z244       0x0000000000000000        0x0
 .bss           0x0000000000000000        0x0 build/default/production/_ext/1954180691/wdrv_winc_httpprovctx.o

.bss%z245       0x0000000000000000        0x0
 .bss           0x0000000000000000        0x0 build/default/production/_ext/651226651/gatt_server.o

.bss%z246       0x0000000000000000        0x0
 .bss           0x0000000000000000        0x0 build/default/production/_ext/1954180691/wdrv_winc_wps.o

.bss%z247       0x0000000000000000        0x0
 .bss           0x0000000000000000        0x0 build/default/production/_ext/1667573777/nmbus.o

.bss%z248       0x0000000000000000        0x0
 .bss           0x0000000000000000        0x0 build/default/production/_ext/1908349716/spi_flash.o

.bss%z249       0x0000000000000000        0x0
 .bss           0x0000000000000000        0x0 build/default/production/_ext/651226651/wifiprov_task.o

.bss%z250       0x0000000000000000        0x0
 .bss           0x0000000000000000        0x0 build/default/production/_ext/1954180691/wdrv_winc_sta.o

.bss%z251       0x0000000000000000        0x0
 .bss           0x0000000000000000        0x0 build/default/production/_ext/651226651/error.o

.bss%z252       0x0000000000000000        0x0
 .bss           0x0000000000000000        0x0 build/default/production/_ext/1068697685/wdrv_winc_eint.o

.bss%z253       0x0000000000000000        0x0
 .bss           0x0000000000000000        0x0 build/default/production/_ext/1667573777/m2m_periph.o

.bss%z254       0x0000000000000000        0x0
 .bss           0x0000000000000000        0x0 build/default/production/_ext/651226651/gattc_task.o

.bss%z255       0x0000000000000000        0x0
 .bss           0x0000000000000000        0x0 build/default/production/_ext/1954180691/wdrv_winc_systime.o

.bss%z256       0x0000000000000000        0x0
 .bss           0x0000000000000000        0x0 build/default/production/_ext/1954180691/wdrv_winc_powersave.o

.bss%z257       0x0000000000000000        0x0
 .bss           0x0000000000000000        0x0 build/default/production/_ext/651226651/gatt_client.o

.bss%z258       0x0000000000000000        0x0
 .bss           0x0000000000000000        0x0 build/default/production/_ext/1954180691/wdrv_winc_bssctx.o

.bss%z259       0x0000000000000000        0x0
 .bss           0x0000000000000000        0x0 build/default/production/_ext/1954180691/wdrv_winc_nvm.o

.bss%z260       0x0000000000000000        0x0
 .bss           0x0000000000000000        0x0 build/default/production/_ext/1360937237/main.o

.bss%z261       0x0000000000000000        0x0
 .bss           0x0000000000000000        0x0 build/default/production/_ext/1360937237/app.o

.bss%z262       0x0000000000000000        0x0
 .bss           0x0000000000000000        0x0 build/default/production/_ext/404212886/list.o

.bss%z263       0x0000000000000000        0x0
 .bss           0x0000000000000000        0x0 build/default/production/_ext/404212886/event_groups.o

.bss%z264       0x0000000000000000        0x0
 .bss           0x0000000000000000        0x0 build/default/production/_ext/404212886/stream_buffer.o

.bss%z265       0x0000000000000000        0x0
 .bss           0x0000000000000000        0x0 build/default/production/_ext/404212886/timers.o

.bss%z266       0x0000000000000000        0x0
 .bss           0x0000000000000000        0x0 build/default/production/_ext/404212886/queue.o

.bss%z267       0x0000000000000000        0x0
 .bss           0x0000000000000000        0x0 build/default/production/_ext/404212886/croutine.o

.bss%z268       0x0000000000000000        0x0
 .bss           0x0000000000000000        0x0 build/default/production/_ext/951553246/port_asm.o

.bss%z269       0x0000000000000000        0x0
 .bss           0x0000000000000000        0x0 build/default/production/_ext/1171490990/exceptions.o

.bss%z270       0x0000000000000000        0x0
 .bss           0x0000000000000000        0x0 build/default/production/_ext/1171490990/interrupts_a.o

.bss%z271       0x0000000000000000        0x0
 .bss           0x0000000000000000        0x0 build/default/production/_ext/1171490990/tasks.o

.bss%z272       0x0000000000000000        0x0
 .bss           0x0000000000000000        0x0 build/default/production/_ext/1171490990/interrupts.o

.bss%z273       0x0000000000000000        0x0
 .bss           0x0000000000000000        0x0 build/default/production/_ext/1171490990/freertos_hooks.o

.bss%z274       0x0000000000000000        0x0
 .bss           0x0000000000000000        0x0 build/default/production/_ext/1881668453/sys_int.o

.bss%z275       0x0000000000000000        0x0
 .bss           0x0000000000000000        0x0 build/default/production/_ext/944882569/sys_debug.o

.bss%z276       0x0000000000000000        0x0
 .bss           0x0000000000000000        0x0 build/default/production/_ext/163028504/xc32_monitor.o

.bss%z277       0x0000000000000000        0x0
 .bss           0x0000000000000000        0x0 build/default/production/_ext/60181895/plib_tmr8.o

.bss%z278       0x0000000000000000        0x0
 .bss           0x0000000000000000        0x0 build/default/production/_ext/60181895/plib_tmr9.o

.bss%z279       0x0000000000000000        0x0
 .bss           0x0000000000000000        0x0 build/default/production/_ext/1865200349/plib_evic.o

.bss%z280       0x0000000000000000        0x0
 .bss           0x0000000000000000        0x0 build/default/production/_ext/1249264884/plib_coretimer.o

.bss%z281       0x0000000000000000        0x0
 .bss           0x0000000000000000        0x0 build/default/production/_ext/60165520/plib_clk.o

.bss%z282       0x0000000000000000        0x0
 .bss           0x0000000000000000        0x0 build/default/production/_ext/1529399856/osal_freertos.o

.bss%z283       0x0000000000000000        0x0
 .bss           0x0000000000000000        0x0 /opt/microchip/xc32/v4.35/bin/bin/../../lib/gcc/pic32mx/8.3.1/../../../../pic32mx/lib/fpu64/debug-exception-return.o

._debug_exception
                0x00000000bfc00480       0x2c
 ._debug_exception
                0x00000000bfc00480       0x2c /opt/microchip/xc32/v4.35/bin/bin/../../lib/gcc/pic32mx/8.3.1/../../../../pic32mx/lib/fpu64/debug-exception-return.o
                0x00000000bfc00480                __DbgExecReturn

.text           0x000000009d001f08     0x86f8
 .text          0x000000009d001f08     0x47e4 build/default/production/_ext/1667573777/m2m_wifi.o
                0x000000009d002818                m2m_wifi_download_mode
                0x000000009d002dc8                m2m_wifi_ble_set_gain_table
                0x000000009d002e3c                m2m_wifi_init_hold
                0x000000009d002e7c                m2m_wifi_init_start
                0x000000009d003088                m2m_wifi_init
                0x000000009d0030e4                m2m_wifi_deinit
                0x000000009d00312c                m2m_wifi_reinit_hold
                0x000000009d003168                m2m_wifi_reinit_start
                0x000000009d0031a0                m2m_wifi_reinit
                0x000000009d003200                m2m_wifi_get_state
                0x000000009d003280                m2m_wifi_handle_events
                0x000000009d0032d4                m2m_wifi_delete_sc
                0x000000009d003350                m2m_wifi_default_connect
                0x000000009d003714                m2m_wifi_connect_open
                0x000000009d00380c                m2m_wifi_connect_wep
                0x000000009d003a6c                m2m_wifi_connect_psk
                0x000000009d003d38                m2m_wifi_1x_set_option
                0x000000009d004060                m2m_wifi_1x_get_option
                0x000000009d0042bc                m2m_wifi_connect_1x_mschap2
                0x000000009d00463c                m2m_wifi_connect_1x_tls
                0x000000009d004b10                m2m_wifi_connect
                0x000000009d004b80                m2m_wifi_connect_sc
                0x000000009d004da8                m2m_wifi_disconnect
                0x000000009d004df4                m2m_wifi_set_mac_address
                0x000000009d004e68                m2m_wifi_set_static_ip
                0x000000009d004ef8                m2m_wifi_enable_dhcp
                0x000000009d004f70                m2m_wifi_set_lsn_int
                0x000000009d004fc0                m2m_wifi_set_cust_InfoElement
                0x000000009d005024                m2m_wifi_set_scan_options
                0x000000009d005098                m2m_wifi_set_scan_region
                0x000000009d005108                m2m_wifi_request_scan
                0x000000009d0051b0                m2m_wifi_request_scan_passive
                0x000000009d005258                m2m_wifi_wps
                0x000000009d0052f0                m2m_wifi_wps_disable
                0x000000009d005348                m2m_wifi_p2p
                0x000000009d005424                m2m_wifi_p2p_disconnect
                0x000000009d00547c                m2m_wifi_enable_ap
                0x000000009d00550c                m2m_wifi_enable_ap_ext
                0x000000009d0055bc                m2m_wifi_disable_ap
                0x000000009d005614                m2m_wifi_req_curr_rssi
                0x000000009d00566c                m2m_wifi_req_restrict_ble
                0x000000009d0056c4                m2m_wifi_req_unrestrict_ble
                0x000000009d00571c                m2m_wifi_send_ethernet_pkt
                0x000000009d0057bc                m2m_wifi_get_otp_mac_address
                0x000000009d005828                m2m_wifi_get_mac_address
                0x000000009d00588c                m2m_wifi_req_scan_result
                0x000000009d0058f8                m2m_wifi_get_num_ap_found
                0x000000009d005920                m2m_wifi_get_sleep_mode
                0x000000009d005950                m2m_wifi_set_sleep_mode
                0x000000009d005a1c                m2m_wifi_request_sleep
                0x000000009d005aa0                m2m_wifi_set_device_name
                0x000000009d005b3c                m2m_wifi_configure_sntp
                0x000000009d005bec                m2m_wifi_get_chipId
                0x000000009d005c1c                m2m_wifi_get_firmware_version
                0x000000009d005c80                m2m_wifi_check_ota_rb
                0x000000009d005cec                m2m_ota_get_firmware_version
                0x000000009d005d50                m2m_wifi_start_provision_mode
                0x000000009d005df8                m2m_wifi_start_provision_mode_ext
                0x000000009d005fb8                m2m_wifi_stop_provision_mode
                0x000000009d006004                m2m_wifi_get_connection_info
                0x000000009d006050                m2m_wifi_set_system_time
                0x000000009d0060a0                m2m_wifi_get_system_time
                0x000000009d0060ec                m2m_wifi_enable_sntp
                0x000000009d006164                m2m_wifi_set_power_profile
                0x000000009d0061d0                m2m_wifi_set_tx_power
                0x000000009d00623c                m2m_wifi_enable_firmware_logs
                0x000000009d0062a8                m2m_wifi_set_battery_voltage
                0x000000009d006318                m2m_wifi_prng_get_random_bytes
                0x000000009d0063f8                m2m_wifi_enable_mac_mcast
                0x000000009d0064fc                m2m_wifi_set_receive_buffer
                0x000000009d006594                m2m_wifi_enable_roaming
                0x000000009d006624                m2m_wifi_disable_roaming
                0x000000009d006678                m2m_wifi_ble_api_send
 .text          0x000000009d0066ec     0x3f14 build/default/production/_ext/404212886/FreeRTOS_tasks.o
                0x000000009d0066ec                xTaskCreate
                0x000000009d006be4                vTaskDelete
                0x000000009d006d8c                xTaskDelayUntil
                0x000000009d006edc                vTaskDelay
                0x000000009d006f6c                uxTaskPriorityGet
                0x000000009d006fd8                uxTaskPriorityGetFromISR
                0x000000009d00704c                vTaskPrioritySet
                0x000000009d007340                vTaskSuspend
                0x000000009d0075ac                vTaskResume
                0x000000009d007774                vTaskStartScheduler
                0x000000009d007828                vTaskEndScheduler
                0x000000009d007884                vTaskSuspendAll
                0x000000009d0078b4                xTaskResumeAll
                0x000000009d007bec                xTaskGetTickCount
                0x000000009d007c18                xTaskGetTickCountFromISR
                0x000000009d007c48                uxTaskGetNumberOfTasks
                0x000000009d007c6c                pcTaskGetName
                0x000000009d007cb8                xTaskCatchUpTicks
                0x000000009d007d1c                xTaskIncrementTick
                0x000000009d0080a8                vTaskSwitchContext
                0x000000009d008210                vTaskPlaceOnEventList
                0x000000009d00826c                vTaskPlaceOnUnorderedEventList
                0x000000009d008334                xTaskRemoveFromEventList
                0x000000009d00861c                vTaskRemoveFromUnorderedEventList
                0x000000009d008878                vTaskSetTimeOutState
                0x000000009d0088d0                vTaskInternalSetTimeOutState
                0x000000009d008910                xTaskCheckForTimeOut
                0x000000009d008a2c                vTaskMissedYield
                0x000000009d008cd8                xTaskGetCurrentTaskHandle
                0x000000009d008d04                xTaskPriorityInherit
                0x000000009d008f5c                xTaskPriorityDisinherit
                0x000000009d00914c                vTaskPriorityDisinheritAfterTimeout
                0x000000009d0093a0                vTaskEnterCritical
                0x000000009d009410                vTaskExitCritical
                0x000000009d009498                uxTaskResetEventItemValue
                0x000000009d0094e0                pvTaskIncrementMutexHeldCount
                0x000000009d009520                ulTaskGenericNotifyTake
                0x000000009d00966c                xTaskGenericNotifyWait
                0x000000009d009818                xTaskGenericNotify
                0x000000009d009bc0                xTaskGenericNotifyFromISR
                0x000000009d009ff8                vTaskGenericNotifyGiveFromISR
                0x000000009d00a2f8                xTaskGenericNotifyStateClear
                0x000000009d00a3a0                ulTaskGenericNotifyValueClear

.text           0x000000009d00a600     0x5694
 .text          0x000000009d00a600     0x2d24 build/default/production/_ext/651226651/gapc_task.o
                0x000000009d00a600                gapc_bond_cfm_handler_pair_resp
                0x000000009d00a848                gapc_bond_cfm_handler_key_exch
                0x000000009d00aa20                gapc_encrypt_cmd_handler
                0x000000009d00ac8c                gapc_encrypt_cfm_handler
                0x000000009d00ae98                gapc_get_tx_pwr_req_handler
                0x000000009d00b064                gapc_set_tx_pwr_req_handler
                0x000000009d00b230                gapc_disconnect_cmd_handler
                0x000000009d00b3d8                gapc_param_update_cmd_handler
                0x000000009d00b6e0                gapc_param_update_cfm_handler
                0x000000009d00b8f0                gapc_connection_cfm_handler
                0x000000009d00bbac                gapc_bond_cmd_handler
                0x000000009d00bde0                gapc_security_cmd_handler
                0x000000009d00bf88                gapc_con_req_ind
                0x000000009d00c09c                gapc_disconnect_ind
                0x000000009d00c138                gapc_param_updated_ind
                0x000000009d00c250                gapc_param_update_req_ind
                0x000000009d00c3a0                gapc_bond_req
                0x000000009d00c3e4                gapc_key_exch
                0x000000009d00c6e0                gapc_bond_req_ind
                0x000000009d00c880                gapc_bond_ind
                0x000000009d00cc70                gapc_encrypt_ind
                0x000000009d00ccdc                gapc_cmp_evt
                0x000000009d00cec4                gapc_encrypt_req_ind
                0x000000009d00cf84                gapc_sec_req_ind
                0x000000009d00d040                gapc_get_info_cmd_handler
                0x000000009d00d1d4                gapc_con_tx_pow_set_ind_parser
                0x000000009d00d228                gapc_con_max_PA_gain_get_ind_parser
                0x000000009d00d27c                gapc_con_tx_pow_get_ind_parser
                0x000000009d00d2d0                gapc_con_rssi_ind_parser
 .text          0x000000009d00d324     0x2970 build/default/production/_ext/1954180691/wdrv_winc.o
                0x000000009d00e6fc                WDRV_WINC_Initialize
                0x000000009d00e81c                WDRV_WINC_Deinitialize
                0x000000009d00e8c8                WDRV_WINC_Reinitialize
                0x000000009d00e8f4                WDRV_WINC_Status
                0x000000009d00e97c                WDRV_WINC_StatusExt
                0x000000009d00ea1c                WDRV_WINC_Tasks
                0x000000009d00eff4                WDRV_WINC_Open
                0x000000009d00f1bc                WDRV_WINC_Close
                0x000000009d00f258                WDRV_WINC_MulticastMACFilterAdd
                0x000000009d00f2ec                WDRV_WINC_MulticastMACFilterRemove
                0x000000009d00f380                WDRV_WINC_EthernetAddressGet
                0x000000009d00f420                WDRV_WINC_OperatingModeGet
                0x000000009d00f4d8                WDRV_WINC_UserHandleSet
                0x000000009d00f578                WDRV_WINC_UserHandleGet
                0x000000009d00f60c                WDRV_WINC_InfoDriverVersionGet
                0x000000009d00f6f8                WDRV_WINC_InfoDeviceFirmwareVersionGet
                0x000000009d00f8fc                WDRV_WINC_InfoDeviceIDGet
                0x000000009d00f984                WDRV_WINC_InfoDeviceMACAddressGet
                0x000000009d00fa8c                WDRV_WINC_InfoDeviceNameSet
                0x000000009d00fb58                WDRV_WINC_GainTableIndexSet
                0x000000009d00fc08                WDRV_WINC_ISR

.text           0x000000009d00fc94     0x4e60
 .text          0x000000009d00fc94     0x28b4 build/default/production/_ext/2094051164/socket.o
                0x000000009d01082c                socketInit
                0x000000009d0108a0                socketDeinit
                0x000000009d010900                registerSocketCallback
                0x000000009d01093c                registerSocketEventCallback
                0x000000009d01096c                registerSocketResolveCallback
                0x000000009d01099c                socket
                0x000000009d010d10                bind
                0x000000009d010e40                listen
                0x000000009d010f2c                accept
                0x000000009d010fa0                connect
                0x000000009d011114                send
                0x000000009d0112bc                sendto
                0x000000009d011484                recv
                0x000000009d01166c                shutdown
                0x000000009d011804                recvfrom
                0x000000009d0119ec                gethostbyname
                0x000000009d011efc                setsockopt
                0x000000009d0120bc                getsockopt
                0x000000009d012104                m2m_ping_req
                0x000000009d0121c0                set_alpn_list
                0x000000009d012378                get_alpn_index
                0x000000009d012440                IsSocketReady
                0x000000009d012468                get_error_detail
 .text          0x000000009d012548     0x25ac build/default/production/_ext/651226651/gattc_task.o
                0x000000009d0125b0                gattc_write_cmd_ind_handler
                0x000000009d012724                gattc_send_evt_cmd_handler
                0x000000009d01290c                gattc_disc_cmd_handler
                0x000000009d012bbc                gattc_reg_to_peer_handler
                0x000000009d012de4                gattc_execute_write_cmd_handler
                0x000000009d012f8c                gattc_write_cmd_handler
                0x000000009d013238                gattc_read_cmd_handler_by_uuid
                0x000000009d013498                gattc_read_cmd_handler_simple_read
                0x000000009d0136f8                gattc_read_cmd_handler_multible
                0x000000009d013984                gattc_svc_changed_notification_cmd_handler
                0x000000009d013ba4                gattc_mtu_cmd_handler
                0x000000009d013d2c                gattc_write_cmd_ind
                0x000000009d0140e0                gattc_disc_svc_ind_parser
                0x000000009d01421c                gattc_disc_svc_incl_ind_parser
                0x000000009d014398                gattc_disc_char_ind_parser
                0x000000009d0144ec                gattc_disc_char_desc_ind_parser
                0x000000009d0145e8                gattc_read_ind_parser
                0x000000009d01473c                gattc_event_ind_parser
                0x000000009d014984                gattc_complete_evt_handler

.text           0x000000009d014af4     0x45ec
 .text          0x000000009d014af4     0x23e0 build/default/production/_ext/101884895/sys_time.o
                0x000000009d015f1c                SYS_TIME_Initialize
                0x000000009d015fd8                SYS_TIME_Deinitialize
                0x000000009d01607c                SYS_TIME_Status
                0x000000009d0160d0                SYS_TIME_FrequencyGet
                0x000000009d0160fc                SYS_TIME_Counter64Get
                0x000000009d0161cc                SYS_TIME_CounterGet
                0x000000009d016204                SYS_TIME_CounterSet
                0x000000009d01627c                SYS_TIME_CountToUS
                0x000000009d016394                SYS_TIME_CountToMS
                0x000000009d016480                SYS_TIME_USToCount
                0x000000009d016508                SYS_TIME_MSToCount
                0x000000009d01658c                SYS_TIME_TimerCreate
                0x000000009d016608                SYS_TIME_TimerReload
                0x000000009d016788                SYS_TIME_TimerDestroy
                0x000000009d01684c                SYS_TIME_TimerStart
                0x000000009d01695c                SYS_TIME_TimerStop
                0x000000009d016a28                SYS_TIME_TimerCounterGet
                0x000000009d016adc                SYS_TIME_TimerPeriodHasExpired
                0x000000009d016b70                SYS_TIME_DelayUS
                0x000000009d016c30                SYS_TIME_DelayMS
                0x000000009d016cf0                SYS_TIME_DelayIsComplete
                0x000000009d016d4c                SYS_TIME_CallbackRegisterUS
                0x000000009d016e10                SYS_TIME_CallbackRegisterMS
 .text          0x000000009d016ed4     0x220c build/default/production/_ext/2070931557/drv_spi.o
                0x000000009d01801c                DRV_SPI_Initialize
                0x000000009d0182f4                DRV_SPI_Status
                0x000000009d0183a4                DRV_SPI_Open
                0x000000009d0186f4                DRV_SPI_Close
                0x000000009d018920                DRV_SPI_TransferEventHandlerSet
                0x000000009d018a74                DRV_SPI_TransferSetup
                0x000000009d018b24                DRV_SPI_WriteReadTransferAdd
                0x000000009d018e50                DRV_SPI_WriteTransferAdd
                0x000000009d018eb0                DRV_SPI_ReadTransferAdd
                0x000000009d018f14                DRV_SPI_TransferStatusGet
                0x000000009d019098                DRV_SPI_Lock

.text           0x000000009d0190e0     0x3ff4
 .text          0x000000009d0190e0     0x2000 build/default/production/_ext/651226651/gatt_server.o
                0x000000009d019a70                at_ble_secondary_service_define
                0x000000009d01a490                at_ble_primary_service_define
                0x000000009d01aeb0                at_ble_characteristic_value_set
                0x000000009d01af28                at_ble_characteristic_value_get
                0x000000009d01af94                at_ble_notification_send
                0x000000009d01aff0                at_ble_indication_send
                0x000000009d01b04c                at_ble_service_changed_notification_send
 .text          0x000000009d01b0e0     0x1ff4 build/default/production/_ext/651226651/gapm_task.o
                0x000000009d01b184                gapm_reset_req_handler
                0x000000009d01b350                gapm_set_dev_name_handler
                0x000000009d01b564                gapm_start_adv_cmd_handler
                0x000000009d01b950                gapm_set_dev_config_cmd_handler
                0x000000009d01bd10                gapm_start_scan_cmd_handler
                0x000000009d01bfc0                gapm_start_connection_cmd_handler
                0x000000009d01c444                gapm_cancel_cmd_handler
                0x000000009d01c59c                gapm_connection_cfm_handler
                0x000000009d01c894                gapm_resolv_addr_cmd_handler
                0x000000009d01ca60                gapm_white_list_mgm_cmd
                0x000000009d01cc58                gapm_adv_report_evt_handler
                0x000000009d01ce0c                gapm_dev_bdaddr_ind_handler
                0x000000009d01ce6c                gapm_cmp_evt
                0x000000009d01d05c                gapm_addr_solved_ind_handler

.text           0x000000009d01d0d4     0x36b0
 .text          0x000000009d01d0d4     0x1b70 build/default/production/_ext/1667573777/nmspi.o
                0x000000009d01e45c                nm_spi_reset
                0x000000009d01e4e8                nm_spi_lock_init
                0x000000009d01e520                nm_spi_init
                0x000000009d01e72c                nm_spi_deinit
                0x000000009d01e768                nm_spi_read_reg
                0x000000009d01e7ac                nm_spi_read_reg_with_ret
                0x000000009d01e8a8                nm_spi_write_reg
                0x000000009d01e9a8                nm_spi_read_block
                0x000000009d01eb14                nm_spi_write_block
 .text          0x000000009d01ec44     0x1b40 build/default/production/_ext/1667573777/m2m_hif.o
                0x000000009d01ed50                hif_chip_wake
                0x000000009d01ee18                hif_set_sleep_mode
                0x000000009d01ee50                hif_get_sleep_mode
                0x000000009d01eedc                hif_chip_sleep
                0x000000009d01ef80                hif_init
                0x000000009d01f014                hif_deinit
                0x000000009d01f06c                hif_check_compatibility
                0x000000009d01f0e4                hif_enable_access
                0x000000009d01f238                hif_check_code
                0x000000009d01f398                hif_send
                0x000000009d0202e4                hif_handle_isr
                0x000000009d020364                hif_receive
                0x000000009d02062c                hif_register_cb

.text           0x000000009d020784     0x3460
 .text          0x000000009d020784     0x1a34 build/default/production/_ext/404212886/queue.o
                0x000000009d020784                xQueueGenericReset
                0x000000009d020940                xQueueGenericCreate
                0x000000009d020b3c                xQueueCreateMutex
                0x000000009d020ba4                xQueueCreateCountingSemaphore
                0x000000009d020c2c                xQueueGenericSend
                0x000000009d020ebc                xQueueGenericSendFromISR
                0x000000009d021018                xQueueGiveFromISR
                0x000000009d021154                xQueueReceive
                0x000000009d0213b4                xQueueSemaphoreTake
                0x000000009d0216a4                xQueuePeek
                0x000000009d02190c                xQueueReceiveFromISR
                0x000000009d021a50                xQueuePeekFromISR
                0x000000009d021af0                uxQueueMessagesWaiting
                0x000000009d021b3c                uxQueueSpacesAvailable
                0x000000009d021b9c                uxQueueMessagesWaitingFromISR
                0x000000009d021bd8                vQueueDelete
                0x000000009d02209c                xQueueIsQueueEmptyFromISR
                0x000000009d02215c                xQueueIsQueueFullFromISR
 .text          0x000000009d0221b8     0x1a2c build/default/production/_ext/651226651/gap.o
                0x000000009d0221b8                at_ble_init
                0x000000009d022344                at_ble_set_privacy_key
                0x000000009d0223f0                at_ble_set_dev_config
                0x000000009d0224b8                at_ble_set_gap_deviceinfo
                0x000000009d0225d8                at_ble_device_name_set
                0x000000009d022660                at_ble_addr_set
                0x000000009d02280c                at_ble_addr_get
                0x000000009d02288c                at_ble_adv_data_set
                0x000000009d022a40                at_ble_adv_start
                0x000000009d022e48                at_ble_adv_stop
                0x000000009d022e90                at_ble_adv_set_tx_power
                0x000000009d022ebc                at_ble_scan_start
                0x000000009d0230e0                at_ble_scan_stop
                0x000000009d023128                at_ble_connect
                0x000000009d023390                at_ble_connect_cancel
                0x000000009d0233d8                at_ble_sec_info_set
                0x000000009d023460                at_ble_whitelist_add
                0x000000009d0234dc                at_ble_whitelist_remove
                0x000000009d023558                at_ble_whitelist_clear
                0x000000009d0235a0                at_ble_disconnect
                0x000000009d02364c                at_ble_connection_param_update
                0x000000009d023768                at_ble_conn_update_reply
                0x000000009d0237c8                at_ble_tx_power_set
                0x000000009d0238b4                at_ble_tx_power_get
                0x000000009d02398c                at_ble_max_PA_gain_get
                0x000000009d023a64                at_ble_random_address_resolve
                0x000000009d023b0c                at_ble_rx_power_get

.text           0x000000009d023be4     0x2ed4
 .text          0x000000009d023be4     0x19fc build/default/production/_ext/1667573777/nmasic.o
                0x000000009d023be4                chip_apply_conf
                0x000000009d023c8c                chip_idle
                0x000000009d023d00                enable_rf_blocks
                0x000000009d023da4                enable_interrupts
                0x000000009d023eb4                cpu_start
                0x000000009d0240ac                nmi_get_chipid
                0x000000009d0242b4                nmi_get_rfrevid
                0x000000009d024300                restore_pmu_settings_after_global_reset
                0x000000009d024358                nmi_update_pll
                0x000000009d0243cc                nmi_set_sys_clk_src_to_xo
                0x000000009d02442c                chip_sleep
                0x000000009d024594                chip_wake
                0x000000009d0247bc                chip_reset_and_cpu_halt
                0x000000009d02497c                chip_reset
                0x000000009d0249dc                wait_for_bootrom
                0x000000009d024bc0                wait_for_firmware_start
                0x000000009d024da4                chip_deinit
                0x000000009d024f90                set_gpio_dir
                0x000000009d025068                set_gpio_val
                0x000000009d025140                get_gpio_val
                0x000000009d0251cc                pullup_ctrl
                0x000000009d025310                nmi_get_otp_mac_address
                0x000000009d0254dc                nmi_get_mac_address
 .text          0x000000009d0255e0     0x14d8 build/default/production/_ext/1865657120/plib_uart2.o
                0x000000009d025688                UART2_Initialize
                0x000000009d025810                UART2_SerialSetup
                0x000000009d025d1c                UART2_Read
                0x000000009d025eac                UART2_ReadCountGet
                0x000000009d025f3c                UART2_ReadFreeBufferCountGet
                0x000000009d025f88                UART2_ReadBufferSizeGet
                0x000000009d025fb8                UART2_ReadNotificationEnable
                0x000000009d026020                UART2_ReadThresholdSet
                0x000000009d026064                UART2_ReadCallbackRegister
                0x000000009d0264a4                UART2_WriteCountGet
                0x000000009d0264dc                UART2_Write
                0x000000009d02662c                UART2_WriteFreeBufferCountGet
                0x000000009d026678                UART2_WriteBufferSizeGet
                0x000000009d0266a8                UART2_TransmitComplete
                0x000000009d0266ec                UART2_WriteNotificationEnable
                0x000000009d026754                UART2_WriteThresholdSet
                0x000000009d026798                UART2_WriteCallbackRegister
                0x000000009d0267e0                UART2_ErrorGet
                0x000000009d026820                UART2_AutoBaudQuery
                0x000000009d026864                UART2_AutoBaudSet
                0x000000009d0268a8                UART2_FAULT_InterruptHandler
                0x000000009d026934                UART2_RX_InterruptHandler
                0x000000009d0269b4                UART2_TX_InterruptHandler

.text           0x000000009d026ab8     0x256c
 .text          0x000000009d026ab8     0x1374 build/default/production/_ext/1908349716/spi_flash.o
                0x000000009d027860                spi_flash_read
                0x000000009d027938                spi_flash_write
                0x000000009d027b3c                spi_flash_erase
                0x000000009d027d38                spi_flash_get_size
 .text          0x000000009d027e2c     0x11f8 build/default/production/_ext/404212886/stream_buffer.o
                0x000000009d027e2c                xStreamBufferGenericCreate
                0x000000009d027f24                vStreamBufferDelete
                0x000000009d027f98                xStreamBufferReset
                0x000000009d028060                xStreamBufferSetTriggerLevel
                0x000000009d0280e0                xStreamBufferSpacesAvailable
                0x000000009d028194                xStreamBufferBytesAvailable
                0x000000009d0281dc                xStreamBufferSend
                0x000000009d02842c                xStreamBufferSendFromISR
                0x000000009d02864c                xStreamBufferReceive
                0x000000009d02880c                xStreamBufferNextMessageLengthBytes
                0x000000009d0288bc                xStreamBufferReceiveFromISR
                0x000000009d028ad4                xStreamBufferIsEmpty
                0x000000009d028b38                xStreamBufferIsFull
                0x000000009d028bcc                xStreamBufferSendCompletedFromISR
                0x000000009d028c78                xStreamBufferReceiveCompletedFromISR

.text           0x000000009d029024     0x2160
 .text          0x000000009d029024     0x10e0 build/default/production/_ext/1865161661/plib_dmac.o
                0x000000009d029354                DMAC_Initialize
                0x000000009d029438                DMAC_ChannelCallbackRegister
                0x000000009d0294a0                DMAC_ChannelTransfer
                0x000000009d0296fc                DMAC_ChainTransferSetup
                0x000000009d0298b4                DMAC_ChannelPatternMatchSetup
                0x000000009d029994                DMAC_ChannelPatternMatchDisable
                0x000000009d0299f0                DMAC_ChannelDisable
                0x000000009d029a74                DMAC_ChannelIsBusy
                0x000000009d029b10                DMAC_ChannelTransferStatusGet
                0x000000009d029bb0                DMAC_ChannelCRCSetup
                0x000000009d029cf4                DMAC_CRCDisable
                0x000000009d029d24                DMAC_CRCRead
                0x000000009d029dac                DMA0_InterruptHandler
                0x000000009d029f58                DMA1_InterruptHandler
 .text          0x000000009d02a104     0x1080 build/default/production/_ext/651226651/dbg_task.o
                0x000000009d02a104                dbg_le_set_bd_addr_req_handler
                0x000000009d02a2b0                dbg_le_get_bd_addr_req_handler
                0x000000009d02a448                dbg_set_tx_pw_req_handler
                0x000000009d02a630                dbg_wr_mem_req_handler
                0x000000009d02a884                dbg_wr_mem_req_handler32_reset
                0x000000009d02aa90                dbg_wr_mem_req_handler32
                0x000000009d02ace4                dbg_rd_mem_req_handler
                0x000000009d02af34                dbg_rd_mem_req_handler32

.text           0x000000009d02b184     0x1f18
 .text          0x000000009d02b184      0xf8c build/default/production/_ext/298189674/plib_spi1_master.o
                0x000000009d02b184                SPI1_Initialize
                0x000000009d02b260                SPI1_TransferSetup
                0x000000009d02b3e8                SPI1_Write
                0x000000009d02b430                SPI1_Read
                0x000000009d02b478                SPI1_IsTransmitterBusy
                0x000000009d02b4ac                SPI1_WriteRead
                0x000000009d02b9cc                SPI1_IsBusy
                0x000000009d02ba38                SPI1_CallbackRegister
                0x000000009d02ba84                SPI1_RX_InterruptHandler
                0x000000009d02bf04                SPI1_TX_InterruptHandler
 .text          0x000000009d02c110      0xf8c build/default/production/_ext/651226651/htpt_task.o
                0x000000009d02c110                htpt_create_db_req_handler
                0x000000009d02c2fc                htpt_enable_req_handler
                0x000000009d02c5a8                htpt_temp_send_req_handler
                0x000000009d02c8c4                htpt_meas_intv_upd_req_handler
                0x000000009d02ca8c                htpt_temp_type_upd_req_handler
                0x000000009d02cbf8                htpt_disable_ind_handler
                0x000000009d02cd74                htpt_error_ind_handler
                0x000000009d02ce48                htpt_temp_send_cfm_handler
                0x000000009d02cef4                htpt_create_db_cfm_handler
                0x000000009d02cf48                htpt_meas_intv_chg_ind_handler
                0x000000009d02cfc4                htpt_cfg_indntf_ind_handler

.text           0x000000009d02d09c     0x1a24
 .text          0x000000009d02d09c      0xd28 build/default/production/_ext/1667573777/m2m_ssl.o
                0x000000009d02d3d0                m2m_ssl_init
                0x000000009d02d474                m2m_ssl_handshake_rsp
                0x000000009d02d4e8                m2m_ssl_send_certs_to_winc
                0x000000009d02d8f4                m2m_ssl_retrieve_cert
                0x000000009d02dc30                m2m_ssl_retrieve_hash
                0x000000009d02dcf0                m2m_ssl_stop_processing_certs
                0x000000009d02dd34                m2m_ssl_ecc_process_done
                0x000000009d02dd5c                m2m_ssl_set_active_ciphersuites
 .text          0x000000009d02ddc4      0xcfc build/default/production/_ext/651226651/event.o
                0x000000009d02de00                event_post
                0x000000009d02e060                event_init
                0x000000009d02e8ec                special_events_handler
                0x000000009d02e9a0                at_ble_event_get
                0x000000009d02ea7c                at_ble_event_user_defined_post

.text           0x000000009d02eac0     0x1900
 .text          0x000000009d02eac0      0xc88 build/default/production/_ext/1667573777/nmdrv.o
                0x000000009d02eac0                nm_get_hif_info
                0x000000009d02eb60                nm_get_firmware_full_info
                0x000000009d02eeb8                nm_get_ota_firmware_info
                0x000000009d02f214                nm_drv_init_download_mode
                0x000000009d02f318                nm_drv_init_hold
                0x000000009d02f414                nm_drv_init_start
                0x000000009d02f59c                nm_drv_init
                0x000000009d02f5f8                nm_drv_deinit
                0x000000009d02f6ec                nm_cpu_start
                0x000000009d02f724                nm_get_state
 .text          0x000000009d02f748      0xc78 build/default/production/_ext/1954180691/wdrv_winc_ssl.o
                0x000000009d02f748                WDRV_WINC_SSLCTXDefault
                0x000000009d02f794                WDRV_WINC_SSLCTXCipherSuitesSet
                0x000000009d02f8b8                WDRV_WINC_SSLCTXCipherSuitesGet
                0x000000009d02f9ec                WDRV_WINC_SSLActiveCipherSuitesSet
                0x000000009d02facc                WDRV_WINC_SSLECCReqCallbackSet
                0x000000009d02fb6c                WDRV_WINC_SSLECCHandShakeRsp
                0x000000009d0300d8                WDRV_WINC_SSLRetrieveCert
                0x000000009d030290                WDRV_WINC_SSLRetrieveHash
                0x000000009d030344                WDRV_WINC_SSLStopRetrieveCert

.text           0x000000009d0303c0     0x186c
 .text          0x000000009d0303c0      0xc3c build/default/production/_ext/1954180691/wdrv_winc_socket.o
                0x000000009d030508                WDRV_WINC_IPAddressSet
                0x000000009d0305e8                WDRV_WINC_IPAddressGet
                0x000000009d030698                WDRV_WINC_IPDNSServerAddressSet
                0x000000009d030764                WDRV_WINC_IPDefaultGatewaySet
                0x000000009d030830                WDRV_WINC_IPUseDHCPSet
                0x000000009d030900                WDRV_WINC_IPUseDHCPGet
                0x000000009d0309a4                WDRV_WINC_IPDHCPServerConfigure
                0x000000009d030a6c                WDRV_WINC_IPLinkActive
                0x000000009d030af0                WDRV_WINC_ICMPEchoRequest
                0x000000009d030be0                WDRV_WINC_OTAUpdateFromURL
                0x000000009d030ce4                WDRV_WINC_OTAUpdateAbort
                0x000000009d030dbc                WDRV_WINC_RollbackActiveFirmwareImage
                0x000000009d030e80                WDRV_WINC_SwitchActiveFirmwareImage
                0x000000009d030f44                WDRV_WINC_SocketRegisterEventCallback
                0x000000009d030fa0                WDRV_WINC_SocketRegisterResolverCallback
 .text          0x000000009d030ffc      0xc30 build/default/production/_ext/1832805299/sys_console.o
                0x000000009d030ffc                SYS_CONSOLE_Initialize
                0x000000009d031138                SYS_CONSOLE_Status
                0x000000009d031270                SYS_CONSOLE_HandleGet
                0x000000009d0312f0                SYS_CONSOLE_DeviceGet
                0x000000009d031384                SYS_CONSOLE_Tasks
                0x000000009d031414                SYS_CONSOLE_Read
                0x000000009d0314f0                SYS_CONSOLE_ReadFreeBufferCountGet
                0x000000009d0315bc                SYS_CONSOLE_ReadCountGet
                0x000000009d031688                SYS_CONSOLE_Write
                0x000000009d031764                SYS_CONSOLE_WriteFreeBufferCountGet
                0x000000009d031830                SYS_CONSOLE_WriteCountGet
                0x000000009d0318fc                SYS_CONSOLE_Print
                0x000000009d031a6c                SYS_CONSOLE_Message
                0x000000009d031b60                SYS_CONSOLE_Flush

.text           0x000000009d031c2c     0x17c0
 .text          0x000000009d031c2c      0xbec build/default/production/_ext/1667573777/m2m_flash.o
                0x000000009d032394                m2m_flash_erase_sector
                0x000000009d0324dc                m2m_flash_write
                0x000000009d03261c                m2m_flash_read
                0x000000009d03275c                m2m_flash_switch_firmware
 .text          0x000000009d032818      0xbd4 build/default/production/_ext/651226651/wifiprov_task.o
                0x000000009d032818                wifiprov_configure_provisioning
                0x000000009d032a24                wifiprov_create_db
                0x000000009d032bd0                wifiprov_start
                0x000000009d032d48                wifiprov_disable
                0x000000009d032e8c                wifiprov_scan_mode_change_ind_send
                0x000000009d032fec                wifiprov_scan_list_ind_send
                0x000000009d033154                wifiprov_wifi_con_update
                0x000000009d0332b4                wifiprov_scan_mode_change_ind_handler
                0x000000009d033300                wifiprov_complete_ind_handler

.text           0x000000009d0333ec     0x1560
 .text          0x000000009d0333ec      0xab4 build/default/production/_ext/1954180691/wdrv_winc_sta.o
                0x000000009d0334fc                WDRV_WINC_BSSConnect
                0x000000009d033b58                WDRV_WINC_BSSReconnect
                0x000000009d033c84                WDRV_WINC_BSSDisconnect
                0x000000009d033d80                WDRV_WINC_BSSRoamingConfigure
 .text          0x000000009d033ea0      0xaac build/default/production/_ext/1954180691/wdrv_winc_authctx.o
                0x000000009d0342b4                WDRV_WINC_AuthCtxIsValid
                0x000000009d0343cc                WDRV_WINC_AuthCtxSetDefaults
                0x000000009d034414                WDRV_WINC_AuthCtxSetOpen
                0x000000009d034460                WDRV_WINC_AuthCtxSetWEP
                0x000000009d034558                WDRV_WINC_AuthCtxSetWPA
                0x000000009d034628                WDRV_WINC_AuthCtxSetWPAEnterpriseMSCHAPv2
                0x000000009d0347b8                WDRV_WINC_AuthCtxSetWPAEnterpriseTLS

.text           0x000000009d03494c     0x14c0
 .text          0x000000009d03494c      0xaa4 build/default/production/_ext/651226651/gattm_task.o
                0x000000009d03494c                gattm_add_svc_req_handler
                0x000000009d034c0c                gattm_add_attribute_req_handler
                0x000000009d034ee0                gattm_att_set_value_req_handler
                0x000000009d035154                gattm_att_get_value_req_handler
 .text          0x000000009d0353f0      0xa1c build/default/production/_ext/1954180691/wdrv_winc_bssfind.o
                0x000000009d0353f0                WDRV_WINC_BSSFindFirst
                0x000000009d035660                WDRV_WINC_BSSFindNext
                0x000000009d0357b0                WDRV_WINC_BSSFindReset
                0x000000009d0358c4                WDRV_WINC_BSSFindGetInfo
                0x000000009d0359b0                WDRV_WINC_BSSFindSetScanParameters
                0x000000009d035b5c                WDRV_WINC_BSSFindSetRSSIThreshold
                0x000000009d035c0c                WDRV_WINC_BSSFindSetEnabledChannels
                0x000000009d035ccc                WDRV_WINC_BSSFindGetNumBSSResults
                0x000000009d035d78                WDRV_WINC_BSSFindInProgress

.text           0x000000009d035e0c     0x12cc
 .text          0x000000009d035e0c      0x974 build/default/production/_ext/651226651/gatt_client.o
                0x000000009d035e70                at_ble_primary_service_discover_all
                0x000000009d035f1c                at_ble_primary_service_discover_by_uuid
                0x000000009d03605c                at_ble_included_service_discover_all
                0x000000009d0360fc                at_ble_characteristic_discover_all
                0x000000009d0361a8                at_ble_characteristic_discover_by_uuid
                0x000000009d0362e8                at_ble_descriptor_discover_all
                0x000000009d036394                at_ble_characteristic_read_by_uuid
                0x000000009d036450                at_ble_characteristic_read
                0x000000009d0364d0                at_ble_characteristic_read_multible
                0x000000009d03653c                at_ble_characteristic_write
                0x000000009d036610                at_ble_characteristic_reliable_write_prepare
                0x000000009d0366a0                at_ble_characteristic_reliable_write_execute
                0x000000009d0366ec                at_ble_characteristic_reliable_write_cancel
                0x000000009d036738                at_ble_exchange_mtu
 .text          0x000000009d036780      0x958 build/default/production/_ext/1954180691/wdrv_winc_nvm.o
                0x000000009d036c18                WDRV_WINC_NVMEraseSector
                0x000000009d036dc4                WDRV_WINC_NVMWrite
                0x000000009d036f5c                WDRV_WINC_NVMRead

.text           0x000000009d0370d8     0x1170
 .text          0x000000009d0370d8      0x8f4 build/default/production/_ext/1865254177/plib_gpio.o
                0x000000009d0370d8                GPIO_Initialize
                0x000000009d037294                GPIO_PortRead
                0x000000009d0372d0                GPIO_PortWrite
                0x000000009d03734c                GPIO_PortLatchRead
                0x000000009d037388                GPIO_PortSet
                0x000000009d0373d0                GPIO_PortClear
                0x000000009d037418                GPIO_PortToggle
                0x000000009d037460                GPIO_PortInputEnable
                0x000000009d0374a8                GPIO_PortOutputEnable
                0x000000009d0374f0                GPIO_PortInterruptEnable
                0x000000009d037538                GPIO_PortInterruptDisable
                0x000000009d037580                GPIO_PinIntEnable
                0x000000009d0376e4                GPIO_PinIntDisable
                0x000000009d037764                GPIO_PinInterruptCallbackRegister
                0x000000009d037878                CHANGE_NOTICE_G_InterruptHandler
 .text          0x000000009d0379cc      0x87c build/default/production/_ext/404212886/event_groups.o
                0x000000009d0379cc                xEventGroupCreate
                0x000000009d037a30                xEventGroupSync
                0x000000009d037c0c                xEventGroupWaitBits
                0x000000009d037e28                xEventGroupClearBits
                0x000000009d037e9c                xEventGroupGetBitsFromISR
                0x000000009d037ef8                xEventGroupSetBits
                0x000000009d0380ac                vEventGroupDelete
                0x000000009d03813c                vEventGroupSetBitsCallback
                0x000000009d038180                vEventGroupClearBitsCallback

.text           0x000000009d038248      0x764
 .text          0x000000009d038248      0x764 build/default/production/_ext/1832805299/sys_console_uart.o
                0x000000009d0382e8                Console_UART_Initialize
                0x000000009d0383c0                Console_UART_Read
                0x000000009d0384a4                Console_UART_ReadCountGet
                0x000000009d038578                Console_UART_ReadFreeBufferCountGet
                0x000000009d03864c                Console_UART_Write
                0x000000009d038730                Console_UART_WriteFreeBufferCountGet
                0x000000009d038804                Console_UART_WriteCountGet
                0x000000009d0388d8                Console_UART_Flush
                0x000000009d038900                Console_UART_Status
                0x000000009d038980                Console_UART_Tasks

.rodata         0x000000009d0389ac      0x754
 .rodata        0x000000009d0389ac      0x754 build/default/production/_ext/1667573777/nmspi.o

.text           0x000000009d039100      0xe64
 .text          0x000000009d039100      0x73c build/default/production/_ext/1954180691/wdrv_winc_softap.o
                0x000000009d039100                WDRV_WINC_APStart
                0x000000009d039604                WDRV_WINC_APStop
                0x000000009d039748                WDRV_WINC_APSetCustIE
 .text          0x000000009d03983c      0x728 build/default/production/_ext/1954180691/wdrv_winc_enterprise.o
                0x000000009d03983c                WDRV_WINC_EntSec802_1XServerAuthSet
                0x000000009d039914                WDRV_WINC_EntSec802_1XServerAuthGet
                0x000000009d0399e8                WDRV_WINC_EntSec802_1XRootCertHashSet
                0x000000009d039ab4                WDRV_WINC_EntSec802_1XRootCertHashGet
                0x000000009d039b90                WDRV_WINC_EntSec802_1XCertExpCheckSet
                0x000000009d039cac                WDRV_WINC_EntSec802_1XCertExpCheckGet
                0x000000009d039db8                WDRV_WINC_EntSec802_1XSessionCacheSet
                0x000000009d039e90                WDRV_WINC_EntSec802_1XSessionCache

.text           0x000000009d039f64      0x700
 .text          0x000000009d039f64      0x700 build/default/production/_ext/1529399856/osal_freertos.o
                0x000000009d039f64                OSAL_CRIT_Enter
                0x000000009d039fd4                OSAL_CRIT_Leave
                0x000000009d03a048                OSAL_SEM_Create
                0x000000009d03a1b8                OSAL_SEM_Delete
                0x000000009d03a204                OSAL_SEM_Pend
                0x000000009d03a29c                OSAL_SEM_Post
                0x000000009d03a308                OSAL_SEM_PostISR
                0x000000009d03a398                OSAL_SEM_GetCount
                0x000000009d03a3fc                OSAL_MUTEX_Create
                0x000000009d03a460                OSAL_MUTEX_Delete
                0x000000009d03a4c8                OSAL_MUTEX_Lock
                0x000000009d03a560                OSAL_MUTEX_Unlock
                0x000000009d03a5cc                OSAL_Malloc
                0x000000009d03a604                OSAL_Free
                0x000000009d03a640                OSAL_Initialize

.text.__fmt_fp  0x000000009d03a664      0x6cc
 .text.__fmt_fp
                0x000000009d03a664      0x6cc /opt/microchip/xc32/v4.35/bin/bin/../../lib/gcc/pic32mx/8.3.1/../../../../pic32mx/lib/fpu64/libc-musl.a(__fmt_fp.o)
                0x000000009d03a664                __fmt_f_needed
                0x000000009d03a664                __fmt_fp

.dinit          0x000000009d03ad30      0x680
 .dinit         0x000000009d03ad30      0x680 data_init

.text.fma       0x000000009d03b3b0      0x678
 .text.fma      0x000000009d03b3b0      0x678 /opt/microchip/xc32/v4.35/bin/bin/../../lib/gcc/pic32mx/8.3.1/../../../../pic32mx/lib/fpu64/libm-musl.a(fma.o)
                0x000000009d03b3b0                fma

.text           0x000000009d03ba28      0x65c
 .text          0x000000009d03ba28      0x65c build/default/production/_ext/651226651/security.o
                0x000000009d03ba28                at_ble_authenticate
                0x000000009d03bcdc                at_ble_pair_key_reply
                0x000000009d03be90                at_ble_encryption_start
                0x000000009d03bf1c                at_ble_encryption_request_reply
                0x000000009d03bfc0                at_ble_send_slave_sec_request

.text.__fmt_a   0x000000009d03c084      0x624
 .text.__fmt_a  0x000000009d03c084      0x624 /opt/microchip/xc32/v4.35/bin/bin/../../lib/gcc/pic32mx/8.3.1/../../../../pic32mx/lib/fpu64/libc-musl.a(__fmt_a.o)
                0x000000009d03c084                __fmt_a_needed
                0x000000009d03c084                __fmt_a

.text           0x000000009d03c6a8      0x5c4
 .text          0x000000009d03c6a8      0x5c4 build/default/production/_ext/1954180691/wdrv_winc_systime.o
                0x000000009d03c6a8                WDRV_WINC_LocalTimeToUTC
                0x000000009d03c81c                WDRV_WINC_UTCToLocalTime
                0x000000009d03c90c                WDRV_WINC_SystemTimeSNTPClientEnable
                0x000000009d03ca4c                WDRV_WINC_SystemTimeSNTPClientDisable
                0x000000009d03caf0                WDRV_WINC_SystemTimeSetCurrent
                0x000000009d03cba8                WDRV_WINC_SystemTimeGetCurrent

.text.__printf_core
                0x000000009d03cc6c      0x5a4
 .text.__printf_core
                0x000000009d03cc6c      0x5a4 /opt/microchip/xc32/v4.35/bin/bin/../../lib/gcc/pic32mx/8.3.1/../../../../pic32mx/lib/fpu64/libc-musl.a(__printf_core.o)
                0x000000009d03cc6c                __printf_core

.text           0x000000009d03d210      0xac4
 .text          0x000000009d03d210      0x564 build/default/production/example.o
                0x000000009d03d328                APP_ExampleInitialize
                0x000000009d03d3bc                APP_ExampleTasks
 .text          0x000000009d03d774      0x560 build/default/production/_ext/1954180691/wdrv_winc_wps.o
                0x000000009d03da50                WDRV_WINC_WPSEnrolleeDiscoveryStartPIN
                0x000000009d03db68                WDRV_WINC_WPSEnrolleeDiscoveryStartPBC
                0x000000009d03dc34                WDRV_WINC_WPSEnrolleeDiscoveryStop

.text           0x000000009d03dcd4      0xa9c
 .text          0x000000009d03dcd4      0x560 build/default/production/_ext/1954180691/wdrv_winc_assoc.o
                0x000000009d03dcd4                WDRV_WINC_AssocSSIDGet
                0x000000009d03de08                WDRV_WINC_AssocPeerAddressGet
                0x000000009d03df3c                WDRV_WINC_AssocAuthTypeGet
                0x000000009d03e064                WDRV_WINC_AssocRSSIGet
                0x000000009d03e198                WDRV_WINC_AssocDisconnect
 .text          0x000000009d03e234      0x53c build/default/production/_ext/1697030576/wdrv_winc_spi.o
                0x000000009d03e308                WDRV_WINC_SPISend
                0x000000009d03e3a8                WDRV_WINC_SPIReceive
                0x000000009d03e458                WDRV_WINC_SPIOpen
                0x000000009d03e658                WDRV_WINC_SPIInitialize
                0x000000009d03e6c4                WDRV_WINC_SPIDeinitialize

.text           0x000000009d03e770      0x984
 .text          0x000000009d03e770      0x4e4 build/default/production/_ext/1667573777/nmbus.o
                0x000000009d03e7d8                nm_bus_iface_init
                0x000000009d03e81c                nm_bus_iface_deinit
                0x000000009d03e858                nm_bus_reset
                0x000000009d03e888                nm_bus_iface_reconfigure
                0x000000009d03e8b4                nm_read_reg
                0x000000009d03e8ec                nm_read_reg_with_ret
                0x000000009d03e92c                nm_write_reg
                0x000000009d03e9bc                nm_read_block
                0x000000009d03eb30                nm_write_block
 .text          0x000000009d03ec54      0x4a0 build/default/production/_ext/1954180691/wdrv_winc_bssctx.o
                0x000000009d03ec54                WDRV_WINC_BSSCtxIsValid
                0x000000009d03ed88                WDRV_WINC_BSSCtxSetDefaults
                0x000000009d03ee0c                WDRV_WINC_BSSCtxSetSSID
                0x000000009d03eee8                WDRV_WINC_BSSCtxSetBSSID
                0x000000009d03efc0                WDRV_WINC_BSSCtxSetChannel
                0x000000009d03f064                WDRV_WINC_BSSCtxSetSSIDVisibility

.rodata         0x000000009d03f0f4      0x450
 .rodata        0x000000009d03f0f4      0x450 build/default/production/_ext/1667573777/m2m_hif.o

.text           0x000000009d03f544      0x878
 .text          0x000000009d03f544      0x444 /opt/microchip/xc32/v4.35/bin/bin/../../lib/gcc/pic32mx/8.3.1/fpu64/libgcc.a(_divdi3.o)
                0x000000009d03f544                __divdi3
 .text          0x000000009d03f988      0x434 /opt/microchip/xc32/v4.35/bin/bin/../../lib/gcc/pic32mx/8.3.1/fpu64/libgcc.a(_moddi3.o)
                0x000000009d03f988                __moddi3

.text           0x000000009d03fdbc      0x7ec
 .text          0x000000009d03fdbc      0x41c build/default/production/_ext/14461671/sys_dma.o
                0x000000009d03fdbc                SYS_DMA_AddressingModeSetup
                0x000000009d03fe3c                SYS_DMA_DataWidthSetup
                0x000000009d03fe90                SYS_DMA_ChannelTransfer
 .text          0x000000009d0401d8      0x3d0 build/default/production/_ext/1865200349/plib_evic.o
                0x000000009d0401d8                EVIC_Initialize
                0x000000009d04028c                EVIC_SourceEnable
                0x000000009d0402f4                EVIC_SourceDisable
                0x000000009d04035c                EVIC_SourceIsEnabled
                0x000000009d0403bc                EVIC_SourceStatusGet
                0x000000009d04041c                EVIC_SourceStatusSet
                0x000000009d040484                EVIC_SourceStatusClear
                0x000000009d0404ec                EVIC_INT_Enable
                0x000000009d04051c                EVIC_INT_Disable
                0x000000009d040564                EVIC_INT_Restore

.text           0x000000009d0405a8      0x78c
 .text          0x000000009d0405a8      0x3d0 build/default/production/_ext/1954180691/wdrv_winc_custie.o
                0x000000009d0405a8                WDRV_WINC_CustIEStoreCtxSetStorage
                0x000000009d04065c                WDRV_WINC_CustIEStoreCtxAddIE
                0x000000009d0407d4                WDRV_WINC_CustIEStoreCtxRemoveIE
 .text          0x000000009d040978      0x3bc build/default/production/_ext/951553246/port.o
                0x000000009d040978                pxPortInitialiseStack
                0x000000009d040ad8                vApplicationSetupTickTimerInterrupt
                0x000000009d040b78                vPortEndScheduler
                0x000000009d040b9c                xPortStartScheduler
                0x000000009d040c28                vPortIncrementTick
                0x000000009d040ca0                uxPortSetInterruptMaskFromISR
                0x000000009d040cf8                vPortClearInterruptMaskFromISR

.text           0x000000009d040d34      0x774
 .text          0x000000009d040d34      0x3bc /opt/microchip/xc32/v4.35/bin/bin/../../lib/gcc/pic32mx/8.3.1/fpu64/libgcc.a(_udivdi3.o)
                0x000000009d040d34                __udivdi3
 .text          0x000000009d0410f0      0x3b8 build/default/production/_ext/1667573777/m2m_ota.o
                0x000000009d0411f4                m2m_ota_init
                0x000000009d041288                m2m_ota_start_update
                0x000000009d041300                m2m_ota_rollback
                0x000000009d0413a8                m2m_ota_abort
                0x000000009d041400                m2m_ota_switch_firmware

.text           0x000000009d0414a8      0x738
 .text          0x000000009d0414a8      0x3b8 /opt/microchip/xc32/v4.35/bin/bin/../../lib/gcc/pic32mx/8.3.1/fpu64/libgcc.a(_umoddi3.o)
                0x000000009d0414a8                __umoddi3
 .text          0x000000009d041860      0x380 build/default/production/_ext/1954180691/wdrv_winc_ble.o
                0x000000009d041900                WDRV_WINC_BLEIsStarted
                0x000000009d041994                WDRV_WINC_BLEStart
                0x000000009d041b10                WDRV_WINC_BLEStop

.text           0x000000009d041be0      0x6ac
 .text          0x000000009d041be0      0x358 build/default/production/_ext/1249264884/plib_coretimer.o
                0x000000009d041be0                CORETIMER_Initialize
                0x000000009d041c24                CORETIMER_CallbackSet
                0x000000009d041c60                CORETIMER_Start
                0x000000009d041ce0                CORETIMER_Stop
                0x000000009d041d2c                CORETIMER_FrequencyGet
                0x000000009d041d54                CORETIMER_CompareSet
                0x000000009d041d90                CORETIMER_CounterGet
                0x000000009d041dc4                CORE_TIMER_InterruptHandler
                0x000000009d041e38                CORETIMER_DelayMs
                0x000000009d041ec0                CORETIMER_DelayUs
 .text          0x000000009d041f38      0x354 build/default/production/_ext/1667573777/m2m_periph.o
                0x000000009d042114                m2m_periph_init
                0x000000009d04213c                m2m_periph_gpio_set_dir
                0x000000009d042198                m2m_periph_gpio_set_val
                0x000000009d0421f4                m2m_periph_gpio_get_val
                0x000000009d042244                m2m_periph_pullup_ctrl

.text           0x000000009d04228c      0x348
 .text          0x000000009d04228c      0x348 build/default/production/_ext/651226651/interface.o
                0x000000009d04228c                platform_interface_callback
                0x000000009d042588                interface_send

.text.__secs_to_tm
                0x000000009d0425d4      0x320
 .text.__secs_to_tm
                0x000000009d0425d4      0x320 /opt/microchip/xc32/v4.35/bin/bin/../../lib/gcc/pic32mx/8.3.1/../../../../pic32mx/lib/fpu64/libc-musl.a(__secs_to_tm.o)
                0x000000009d0425d4                __secs_to_tm

.text           0x000000009d0428f4      0x5a8
 .text          0x000000009d0428f4      0x2e8 build/default/production/_ext/1306418660/platform.o
                0x000000009d0428f4                platform_send_lock_aquire
                0x000000009d042930                platform_send_lock_release
                0x000000009d042968                platform_init
                0x000000009d042a4c                platform_interface_send
                0x000000009d042ab0                platform_cmd_cmpl_signal
                0x000000009d042ae8                platform_cmd_cmpl_wait
                0x000000009d042b40                platform_event_signal
                0x000000009d042b78                platform_event_wait
 .text          0x000000009d042bdc      0x2c0 build/default/production/_ext/1954180691/wdrv_winc_powersave.o
                0x000000009d042bdc                WDRV_WINC_PowerSaveSetMode
                0x000000009d042cb4                WDRV_WINC_PowerSaveGetMode
                0x000000009d042d3c                WDRV_WINC_PowerSaveSetBeaconInterval

.text           0x000000009d042e9c      0x540
 .text          0x000000009d042e9c      0x2bc build/default/production/_ext/404212886/list.o
                0x000000009d042e9c                vListInitialise
                0x000000009d042f08                vListInitialiseItem
                0x000000009d042f38                vListInsertEnd
                0x000000009d042fc8                vListInsert
                0x000000009d0430b8                uxListRemove
 .text          0x000000009d043158      0x284 build/default/production/_ext/60181895/plib_tmr9.o
                0x000000009d043158                TMR9_Initialize
                0x000000009d0431b0                TMR9_Start
                0x000000009d0431e0                TMR9_Stop
                0x000000009d043210                TMR9_PeriodSet
                0x000000009d043248                TMR9_PeriodGet
                0x000000009d043274                TMR9_CounterGet
                0x000000009d0432a0                TMR9_FrequencyGet
                0x000000009d0432c8                TIMER_9_InterruptHandler
                0x000000009d043340                TMR9_InterruptEnable
                0x000000009d043370                TMR9_InterruptDisable
                0x000000009d0433a0                TMR9_CallbackRegister

.text           0x000000009d0433dc      0x508
 .text          0x000000009d0433dc      0x284 build/default/production/_ext/60181895/plib_tmr8.o
                0x000000009d0433dc                TMR8_Initialize
                0x000000009d043434                TMR8_Start
                0x000000009d043464                TMR8_Stop
                0x000000009d043494                TMR8_PeriodSet
                0x000000009d0434cc                TMR8_PeriodGet
                0x000000009d0434f8                TMR8_CounterGet
                0x000000009d043524                TMR8_FrequencyGet
                0x000000009d04354c                TIMER_8_InterruptHandler
                0x000000009d0435c4                TMR8_InterruptEnable
                0x000000009d0435f4                TMR8_InterruptDisable
                0x000000009d043624                TMR8_CallbackRegister
 .text          0x000000009d043660      0x284 build/default/production/_ext/651226651/htpt.o
                0x000000009d043660                at_ble_htpt_create_db
                0x000000009d0436fc                at_ble_htpt_enable
                0x000000009d04382c                at_ble_htpt_temp_send
                0x000000009d04389c                at_ble_htpt_meas_intv_update

.rodata         0x000000009d0438e4      0x270
 .rodata        0x000000009d0438e4      0x270 build/default/production/_ext/1667573777/m2m_wifi.o

.text           0x000000009d043b54      0x484
 .text          0x000000009d043b54      0x248 build/default/production/_ext/1636284884/nm_common.o
                0x000000009d043b54                nm_sleep
                0x000000009d043b90                nm_reset
                0x000000009d043c90                hexstr_2_bytes
 .text          0x000000009d043d9c      0x23c build/default/production/_ext/1171490990/interrupts.o
                0x000000009d043d9c                CORE_TIMER_Handler
                0x000000009d043dd0                TIMER_8_Handler
                0x000000009d043e04                TIMER_9_Handler
                0x000000009d043e38                SPI1_RX_Handler
                0x000000009d043e6c                SPI1_TX_Handler
                0x000000009d043ea0                CHANGE_NOTICE_G_Handler
                0x000000009d043ed4                DMA0_Handler
                0x000000009d043f08                DMA1_Handler
                0x000000009d043f3c                UART2_FAULT_Handler
                0x000000009d043f70                UART2_RX_Handler
                0x000000009d043fa4                UART2_TX_Handler

.text           0x000000009d043fd8      0x21c
 .text          0x000000009d043fd8      0x21c build/default/production/_ext/2094051164/inet_addr.o
                0x000000009d043fd8                inet_addr

.text.__fmt_x   0x000000009d0441f4      0x200
 .text.__fmt_x  0x000000009d0441f4      0x200 /opt/microchip/xc32/v4.35/bin/bin/../../lib/gcc/pic32mx/8.3.1/../../../../pic32mx/lib/fpu64/libc-musl.a(__fmt_x.o)
                0x000000009d0441f4                __fmt_x
                0x000000009d0441f4                __fmt_x_needed

.text           0x000000009d0443f4      0x1cc
 .text          0x000000009d0443f4      0x1cc build/default/production/_ext/2094051164/inet_ntop.o
                0x000000009d0443f4                inet_ntop

.text.__year_to_secs
                0x000000009d0445c0      0x1c8
 .text.__year_to_secs
                0x000000009d0445c0      0x1c8 /opt/microchip/xc32/v4.35/bin/bin/../../lib/gcc/pic32mx/8.3.1/../../../../pic32mx/lib/fpu64/libc-musl.a(__year_to_secs.o)
                0x000000009d0445c0                __year_to_secs

.rodata         0x000000009d044788      0x1b8
 .rodata        0x000000009d044788      0x1b8 build/default/production/_ext/1667573777/nmdrv.o

.text           0x000000009d044940      0x348
 .text          0x000000009d044940      0x1b0 build/default/production/_ext/1954180691/wdrv_winc_httpprovctx.o
                0x000000009d044940                WDRV_WINC_HTTPProvCtxSetDefaults
                0x000000009d04499c                WDRV_WINC_HTTPProvCtxSetDomainName
                0x000000009d044a4c                WDRV_WINC_HTTPProvCtxSetURLWildcard
                0x000000009d044aa0                WDRV_WINC_HTTPProvCtxSetConnectCallback
 .text          0x000000009d044af0      0x198 build/default/production/_ext/1665200909/heap_1.o
                0x000000009d044af0                pvPortMalloc
                0x000000009d044c0c                vPortFree
                0x000000009d044c34                vPortInitialiseBlocks
                0x000000009d044c5c                xPortGetFreeHeapSize

.text.__pop_int
                0x000000009d044c88      0x188
 .text.__pop_int
                0x000000009d044c88      0x188 /opt/microchip/xc32/v4.35/bin/bin/../../lib/gcc/pic32mx/8.3.1/../../../../pic32mx/lib/fpu64/libc-musl.a(__pop_int.o)
                0x000000009d044c88                __pop_int
                0x000000009d044c88                __pop_int_needed

.rodata         0x000000009d044e10      0x184
 .rodata        0x000000009d044e10      0x184 build/default/production/_ext/1667573777/nmasic.o

.text           0x000000009d044f94      0x2e8
 .text          0x000000009d044f94      0x17c build/default/production/_ext/1171490990/initialization.o
                0x000000009d044f94                SYS_Initialize
 .text          0x000000009d045110      0x16c build/default/production/_ext/1881668453/sys_int.o
                0x000000009d045110                SYS_INT_Enable
                0x000000009d045144                SYS_INT_Disable
                0x000000009d045174                SYS_INT_Restore
                0x000000009d0451b8                SYS_INT_SourceDisable
                0x000000009d04522c                SYS_INT_SourceRestore

.text           0x000000009d04527c      0x2d0
 .text          0x000000009d04527c      0x168 /opt/microchip/xc32/v4.35/bin/bin/../../lib/gcc/pic32mx/8.3.1/../../../../pic32mx/lib/fpu64/libpic32.a(memcpy.o)
                0x000000009d04527c                memcpy
 .text          0x000000009d0453e4      0x168 /opt/microchip/xc32/v4.35/bin/bin/../../lib/gcc/pic32mx/8.3.1/../../../../pic32mx/lib/fpu64/libpic32.a(strlen.o)
                0x000000009d0453e4                strlen

.text           0x000000009d04554c      0x150
 .text          0x000000009d04554c      0x150 build/default/production/_ext/651226651/error.o
                0x000000009d04554c                at_ble_att_error
                0x000000009d04560c                at_ble_gap_error

.text.__fmt_d   0x000000009d04569c      0x150
 .text.__fmt_d  0x000000009d04569c      0x150 /opt/microchip/xc32/v4.35/bin/bin/../../lib/gcc/pic32mx/8.3.1/../../../../pic32mx/lib/fpu64/libc-musl.a(__fmt_d.o)
                0x000000009d04569c                __fmt_d
                0x000000009d04569c                __fmt_d_needed

.text           0x000000009d0457ec      0x290
 .text          0x000000009d0457ec      0x14c build/default/production/_ext/1360937237/app.o
                0x000000009d0457ec                APP_Initialize
                0x000000009d045814                APP_Tasks
 .text          0x000000009d045938      0x144 build/default/production/_ext/944882569/sys_debug.o
                0x000000009d045938                SYS_DEBUG_Initialize
                0x000000009d045990                SYS_DEBUG_ConsoleInstanceGet
                0x000000009d0459b4                SYS_DEBUG_Status
                0x000000009d0459dc                SYS_DEBUG_ErrorLevelSet
                0x000000009d045a0c                SYS_DEBUG_ErrorLevelGet
                0x000000009d045a30                SYS_DEBUG_Redirect

.text.__cvt_u   0x000000009d045a7c      0x13c
 .text.__cvt_u  0x000000009d045a7c      0x13c /opt/microchip/xc32/v4.35/bin/bin/../../lib/gcc/pic32mx/8.3.1/../../../../pic32mx/lib/fpu64/libc-musl.a(__cvt_u.o)
                0x000000009d045a7c                __cvt_u

.text           0x000000009d045bb8      0x248
 .text          0x000000009d045bb8      0x124 build/default/production/_ext/1171490990/freertos_hooks.o
                0x000000009d045bb8                vApplicationStackOverflowHook
                0x000000009d045bfc                vApplicationMallocFailedHook
                0x000000009d045c38                vApplicationIdleHook
                0x000000009d045c5c                vApplicationTickHook
                0x000000009d045c80                vAssertCalled
 .text          0x000000009d045cdc      0x124 build/default/production/_ext/1171490990/tasks.o
                0x000000009d045d70                SYS_Tasks

.text           0x000000009d045e00      0x120
 .text          0x000000009d045e00      0x120 build/default/production/_ext/1360937237/main.o
                0x000000009d045e9c                main

.rodata         0x000000009d045f20      0x214
 .rodata        0x000000009d045f20      0x10c build/default/production/_ext/2070931557/drv_spi.o
 .rodata        0x000000009d04602c      0x108 build/default/production/_ext/2094051164/socket.o

.text.__tm_to_secs
                0x000000009d046134      0x108
 .text.__tm_to_secs
                0x000000009d046134      0x108 /opt/microchip/xc32/v4.35/bin/bin/../../lib/gcc/pic32mx/8.3.1/../../../../pic32mx/lib/fpu64/libc-musl.a(__tm_to_secs.o)
                0x000000009d046134                __tm_to_secs

.text           0x000000009d04623c      0x104
 .text          0x000000009d04623c      0x104 build/default/production/_ext/951553246/port_asm.o
                0x000000009d04623c                vPortStartFirstTask

.rodata         0x000000009d046340      0x104
 .rodata        0x000000009d046340      0x104 build/default/production/_ext/1667573777/m2m_ssl.o

.text.__pad     0x000000009d046444      0x100
 .text.__pad    0x000000009d046444      0x100 /opt/microchip/xc32/v4.35/bin/bin/../../lib/gcc/pic32mx/8.3.1/../../../../pic32mx/lib/fpu64/libc-musl.a(__printf_core.o)
                0x000000009d046444                __pad

.rodata         0x000000009d046544       0xfc
 .rodata        0x000000009d046544       0xfc build/default/production/example.o

.text           0x000000009d046640       0xf8
 .text          0x000000009d046640       0xf8 build/default/production/_ext/1068697685/wdrv_winc_eint.o
                0x000000009d046680                WDRV_WINC_INTInitialize
                0x000000009d0466f8                WDRV_WINC_INTDeinitialize

.text.__fmt_o   0x000000009d046738       0xf4
 .text.__fmt_o  0x000000009d046738       0xf4 /opt/microchip/xc32/v4.35/bin/bin/../../lib/gcc/pic32mx/8.3.1/../../../../pic32mx/lib/fpu64/libc-musl.a(__fmt_o.o)
                0x000000009d046738                __fmt_o
                0x000000009d046738                __fmt_o_needed

.rodata         0x000000009d000010       0xe8
 .rodata        0x000000009d000010       0xe8 build/default/production/_ext/1171490990/initialization.o

.text.__pop_ptr
                0x000000009d04682c       0xe4
 .text.__pop_ptr
                0x000000009d04682c       0xe4 /opt/microchip/xc32/v4.35/bin/bin/../../lib/gcc/pic32mx/8.3.1/../../../../pic32mx/lib/fpu64/libc-musl.a(__pop_ptr.o)
                0x000000009d04682c                __pop_ptr
                0x000000009d04682c                __pop_ptr_needed

.text           0x000000009d046910       0xe0
 .text          0x000000009d046910       0xe0 build/default/production/_ext/60165520/plib_clk.o
                0x000000009d046910                CLK_Initialize

.text.general_exception
                0x000000009d0469f0       0xdc
 .text.general_exception
                0x000000009d0469f0       0xdc /opt/microchip/xc32/v4.35/bin/bin/../../lib/gcc/pic32mx/8.3.1/../../../../pic32mx/lib/fpu64/libpic32.a(general-exception.o)
                0x000000009d0469f0                _general_exception_context

.text._cache_err_exception_context
                0x000000009d046acc       0xd8
 .text._cache_err_exception_context
                0x000000009d046acc       0xd8 /opt/microchip/xc32/v4.35/bin/bin/../../lib/gcc/pic32mx/8.3.1/../../../../pic32mx/lib/fpu64/libpic32.a(cache-err-exception.o)
                0x000000009d046acc                _cache_err_exception_context

.text.simple_tlb_refill_context
                0x000000009d046ba4       0xd8
 .text.simple_tlb_refill_context
                0x000000009d046ba4       0xd8 /opt/microchip/xc32/v4.35/bin/bin/../../lib/gcc/pic32mx/8.3.1/../../../../pic32mx/lib/fpu64/libpic32.a(simple-tlb-refill-exception.o)
                0x000000009d046ba4                _simple_tlb_refill_exception_context

.text           0x000000009d046c7c      0x180
 .text          0x000000009d046c7c       0xc0 build/default/production/_ext/1171490990/exceptions.o
                0x000000009d046c7c                _general_exception_handler
                0x000000009d046cac                _bootstrap_exception_handler
                0x000000009d046cdc                _cache_err_exception_handler
                0x000000009d046d0c                _simple_tlb_refill_exception_handler
 .text          0x000000009d046d3c       0xc0 build/default/production/_ext/1068697685/wdrv_winc_gpio.o
                0x000000009d046d3c                WDRV_WINC_GPIOResetAssert
                0x000000009d046d6c                WDRV_WINC_GPIOResetDeassert
                0x000000009d046d9c                WDRV_WINC_GPIOChipEnableAssert
                0x000000009d046dcc                WDRV_WINC_GPIOChipEnableDeassert

.text.__strchrnul
                0x000000009d046dfc       0xc0
 .text.__strchrnul
                0x000000009d046dfc       0xc0 /opt/microchip/xc32/v4.35/bin/bin/../../lib/gcc/pic32mx/8.3.1/../../../../pic32mx/lib/fpu64/libc-musl.a(strchrnul.o)
                0x000000009d046dfc                __strchrnul
                0x000000009d046dfc                strchrnul

.tlb.__pic32_tlb_init_ebi_sqi
                0x000000009d046ebc       0xbc
 .tlb.__pic32_tlb_init_ebi_sqi
                0x000000009d046ebc       0xbc /opt/microchip/xc32/v4.35/bin/bin/../../lib/gcc/pic32mx/8.3.1/../../../../pic32mx/lib/fpu64/libpic32.a(pic32_init_tlb_ebi_sqi.o)
                0x000000009d046ebc                __pic32_tlb_init_ebi_sqi

.text.vsnprintf
                0x000000009d046f78       0xbc
 .text.vsnprintf
                0x000000009d046f78       0xbc /opt/microchip/xc32/v4.35/bin/bin/../../lib/gcc/pic32mx/8.3.1/../../../../pic32mx/lib/fpu64/libc-musl.a(vsnprintf.o)
                0x000000009d046f78                vsnprintf

.text.__fmt_u   0x000000009d047034       0xbc
 .text.__fmt_u  0x000000009d047034       0xbc /opt/microchip/xc32/v4.35/bin/bin/../../lib/gcc/pic32mx/8.3.1/../../../../pic32mx/lib/fpu64/libc-musl.a(__fmt_u.o)
                0x000000009d047034                __fmt_u
                0x000000009d047034                __fmt_u_needed

.text.floor     0x000000009d0470f0       0xb4
 .text.floor    0x000000009d0470f0       0xb4 /opt/microchip/xc32/v4.35/bin/bin/../../lib/gcc/pic32mx/8.3.1/../../../../pic32mx/lib/fpu64/libm-musl.a(floor.o)
                0x000000009d0470f0                floor

.text           0x000000009d0471a4       0xa8
 .text          0x000000009d0471a4       0xa8 /opt/microchip/xc32/v4.35/bin/bin/../../lib/gcc/pic32mx/8.3.1/../../../../pic32mx/lib/fpu64/libpic32.a(memset.o)
                0x000000009d0471a4                memset

.text.__fmt_s   0x000000009d04724c       0xa4
 .text.__fmt_s  0x000000009d04724c       0xa4 /opt/microchip/xc32/v4.35/bin/bin/../../lib/gcc/pic32mx/8.3.1/../../../../pic32mx/lib/fpu64/libc-musl.a(__fmt_s.o)
                0x000000009d04724c                __fmt_s
                0x000000009d04724c                __fmt_0_needed
                0x000000009d04724c                __fmt_s_needed

.text           0x000000009d0472f0       0x98
 .text          0x000000009d0472f0       0x98 /opt/microchip/xc32/v4.35/bin/bin/../../lib/gcc/pic32mx/8.3.1/../../../../pic32mx/lib/fpu64/libpic32.a(memcmp.o)
                0x000000009d0472f0                memcmp

.rodata         0x000000009d047388       0x8c
 .rodata        0x000000009d047388       0x8c build/default/production/_ext/1954180691/wdrv_winc.o

.text.normalize
                0x000000009d047414       0x8c
 .text.normalize
                0x000000009d047414       0x8c /opt/microchip/xc32/v4.35/bin/bin/../../lib/gcc/pic32mx/8.3.1/../../../../pic32mx/lib/fpu64/libm-musl.a(fma.o)

.text.scalbn    0x000000009d0474a0       0x8c
 .text.scalbn   0x000000009d0474a0       0x8c /opt/microchip/xc32/v4.35/bin/bin/../../lib/gcc/pic32mx/8.3.1/../../../../pic32mx/lib/fpu64/libm-musl.a(scalbn.o)
                0x000000009d0474a0                scalbn

.text.mktime    0x000000009d04752c       0x84
 .text.mktime   0x000000009d04752c       0x84 /opt/microchip/xc32/v4.35/bin/bin/../../lib/gcc/pic32mx/8.3.1/../../../../pic32mx/lib/fpu64/libc-musl.a(mktime.o)
                0x000000009d04752c                mktime

.text           0x000000009d0475b0       0x7c
 .text          0x000000009d0475b0       0x7c /opt/microchip/xc32/v4.35/bin/bin/../../lib/gcc/pic32mx/8.3.1/../../../../pic32mx/lib/fpu64/libpic32.a(pic32_data_init_core.o)
                0x000000009d0475b0                __dinit_copy_emb
                0x000000009d0475b0                __dinit_copy_val_data
                0x000000009d0475b0                __dinit_decompress
                0x000000009d0475b8                __pic32_data_init

.text.atoi      0x000000009d04762c       0x7c
 .text.atoi     0x000000009d04762c       0x7c /opt/microchip/xc32/v4.35/bin/bin/../../lib/gcc/pic32mx/8.3.1/../../../../pic32mx/lib/fpu64/libc-musl.a(atoi.o)
                0x000000009d04762c                atoi

.rodata         0x000000009d000110       0x70
 .rodata        0x000000009d000110       0x70 build/default/production/_ext/1954180691/wdrv_winc_nvm.o

.rodata         0x000000009d000190       0x70
 .rodata        0x000000009d000190       0x70 build/default/production/_ext/1908349716/spi_flash.o

.rodata         0x000000009d0476a8       0x70
 .rodata        0x000000009d0476a8       0x70 build/default/production/_ext/1667573777/m2m_flash.o

.text.a_clz_64  0x000000009d047718       0x6c
 .text.a_clz_64
                0x000000009d047718       0x6c /opt/microchip/xc32/v4.35/bin/bin/../../lib/gcc/pic32mx/8.3.1/../../../../pic32mx/lib/fpu64/libm-musl.a(fma.o)

.text           0x000000009d047784       0x60
 .text          0x000000009d047784       0x60 build/default/production/_ext/163028504/xc32_monitor.o
                0x000000009d047784                read
                0x000000009d0477b4                write

.text.__gmtime_r
                0x000000009d0477e4       0x60
 .text.__gmtime_r
                0x000000009d0477e4       0x60 /opt/microchip/xc32/v4.35/bin/bin/../../lib/gcc/pic32mx/8.3.1/../../../../pic32mx/lib/fpu64/libc-musl.a(gmtime_r.o)
                0x000000009d0477e4                __gmtime_r
                0x000000009d0477e4                gmtime_r

.text.__string_out
                0x000000009d047844       0x5c
 .text.__string_out
                0x000000009d047844       0x5c /opt/microchip/xc32/v4.35/bin/bin/../../lib/gcc/pic32mx/8.3.1/../../../../pic32mx/lib/fpu64/libc-musl.a(__printf_core.o)
                0x000000009d047844                __out

.text.__fmt_state
                0x000000009d0478a0       0x58
 .text.__fmt_state
                0x000000009d0478a0       0x58 /opt/microchip/xc32/v4.35/bin/bin/../../lib/gcc/pic32mx/8.3.1/../../../../pic32mx/lib/fpu64/libc-musl.a(__printf_core.o)
                0x000000009d0478a0                __fmt_state

.text.main_entry
                0x000000009d0478f8       0x54
 .text.main_entry
                0x000000009d0478f8       0x54 /tmp/ccyN9zno.o
                0x000000009d04792c                __crt0_exit

.text           0x000000009d04794c       0x50
 .text          0x000000009d04794c       0x50 build/default/production/_ext/2018374705/wdrv_winc_osal.o
                0x000000009d04794c                WDRV_MSDelay

.text.__pop_float
                0x000000009d04799c       0x48
 .text.__pop_float
                0x000000009d04799c       0x48 /opt/microchip/xc32/v4.35/bin/bin/../../lib/gcc/pic32mx/8.3.1/../../../../pic32mx/lib/fpu64/libc-musl.a(__pop_float.o)
                0x000000009d04799c                __pop_float
                0x000000009d04799c                __pop_float_needed

.text           0x000000009d0479e4       0x44
 .text          0x000000009d0479e4       0x44 /opt/microchip/xc32/v4.35/bin/bin/../../lib/gcc/pic32mx/8.3.1/../../../../pic32mx/lib/fpu64/pic32_software_reset.o
                0x000000009d0479e4                __pic32_software_reset

.text.strnlen   0x000000009d047a28       0x44
 .text.strnlen  0x000000009d047a28       0x44 /opt/microchip/xc32/v4.35/bin/bin/../../lib/gcc/pic32mx/8.3.1/../../../../pic32mx/lib/fpu64/libc-musl.a(strnlen.o)
                0x000000009d047a28                strnlen

.rodata         0x000000009d047a6c       0x40
 .rodata        0x000000009d047a6c       0x40 build/default/production/_ext/1954180691/wdrv_winc_ssl.o

.text.memchr    0x000000009d047aac       0x40
 .text.memchr   0x000000009d047aac       0x40 /opt/microchip/xc32/v4.35/bin/bin/../../lib/gcc/pic32mx/8.3.1/../../../../pic32mx/lib/fpu64/libc-musl.a(memchr.o)
                0x000000009d047aac                memchr

.text.vfprintf  0x000000009d047aec       0x3c
 .text.vfprintf
                0x000000009d047aec       0x3c /opt/microchip/xc32/v4.35/bin/bin/../../lib/gcc/pic32mx/8.3.1/../../../../pic32mx/lib/fpu64/libc-musl.a(vfprintf.o)
                0x000000009d047aec                vfprintf

.text           0x000000009d047b28       0x78
 .text          0x000000009d047b28       0x3c /opt/microchip/xc32/v4.35/bin/bin/../../lib/gcc/pic32mx/8.3.1/fpu64/libgcc.a(_lshrdi3.o)
                0x000000009d047b28                __lshrdi3
 .text          0x000000009d047b64       0x3c /opt/microchip/xc32/v4.35/bin/bin/../../lib/gcc/pic32mx/8.3.1/fpu64/libgcc.a(_ashldi3.o)
                0x000000009d047b64                __ashldi3

.rodata         0x000000009d047ba0       0x38
 .rodata        0x000000009d047ba0       0x38 build/default/production/_ext/1667573777/m2m_ota.o

.text.strchr    0x000000009d047bd8       0x34
 .text.strchr   0x000000009d047bd8       0x34 /opt/microchip/xc32/v4.35/bin/bin/../../lib/gcc/pic32mx/8.3.1/../../../../pic32mx/lib/fpu64/libc-musl.a(strchr.o)
                0x000000009d047bd8                strchr

.text.__month_to_secs
                0x000000009d047c0c       0x34
 .text.__month_to_secs
                0x000000009d047c0c       0x34 /opt/microchip/xc32/v4.35/bin/bin/../../lib/gcc/pic32mx/8.3.1/../../../../pic32mx/lib/fpu64/libc-musl.a(__month_to_secs.o)
                0x000000009d047c0c                __month_to_secs

.rodata         0x000000009d047c40       0x60
 .rodata        0x000000009d047c40       0x30 build/default/production/_ext/1832805299/sys_console_uart.o
                0x000000009d047c40                sysConsoleUARTDevDesc
 .rodata        0x000000009d047c70       0x30 build/default/production/_ext/1697030576/wdrv_winc_spi.o

.rodata         0x000000009d047ca0       0x5c
 .rodata        0x000000009d047ca0       0x30 /opt/microchip/xc32/v4.35/bin/bin/../../lib/gcc/pic32mx/8.3.1/../../../../pic32mx/lib/fpu64/libc-musl.a(__month_to_secs.o)
 .rodata        0x000000009d047cd0       0x2c build/default/production/_ext/1360937237/main.o

.rodata         0x000000009d047cfc       0x28
 .rodata        0x000000009d047cfc       0x28 build/default/production/_ext/1954180691/wdrv_winc_authctx.o

.text.sprintf   0x000000009d047d24       0x28
 .text.sprintf  0x000000009d047d24       0x28 /opt/microchip/xc32/v4.35/bin/bin/../../lib/gcc/pic32mx/8.3.1/../../../../pic32mx/lib/fpu64/libc-musl.a(sprintf.o)
                0x000000009d047d24                sprintf

.text.vsprintf  0x000000009d047d4c       0x28
 .text.vsprintf
                0x000000009d047d4c       0x28 /opt/microchip/xc32/v4.35/bin/bin/../../lib/gcc/pic32mx/8.3.1/../../../../pic32mx/lib/fpu64/libc-musl.a(vsprintf.o)
                0x000000009d047d4c                vsprintf

.rodata.cst8    0x000000009d047d78       0x28
 .rodata.cst8   0x000000009d047d78       0x28 /opt/microchip/xc32/v4.35/bin/bin/../../lib/gcc/pic32mx/8.3.1/../../../../pic32mx/lib/fpu64/libc-musl.a(__fmt_a.o)

.text.strcpy    0x000000009d047da0       0x28
 .text.strcpy   0x000000009d047da0       0x28 /opt/microchip/xc32/v4.35/bin/bin/../../lib/gcc/pic32mx/8.3.1/../../../../pic32mx/lib/fpu64/libc-musl.a(strcpy.o)
                0x000000009d047da0                strcpy

.text.stpcpy    0x000000009d047dc8       0x28
 .text.stpcpy   0x000000009d047dc8       0x28 /opt/microchip/xc32/v4.35/bin/bin/../../lib/gcc/pic32mx/8.3.1/../../../../pic32mx/lib/fpu64/libc-musl.a(stpcpy.o)
                0x000000009d047dc8                stpcpy
                0x000000009d047dc8                __stpcpy

.text.gmtime    0x000000009d047df0       0x20
 .text.gmtime   0x000000009d047df0       0x20 /opt/microchip/xc32/v4.35/bin/bin/../../lib/gcc/pic32mx/8.3.1/../../../../pic32mx/lib/fpu64/libc-musl.a(gmtime.o)
                0x000000009d047df0                gmtime

.rodata.cst8    0x000000009d047e10       0x40
 .rodata.cst8   0x000000009d047e10       0x20 /opt/microchip/xc32/v4.35/bin/bin/../../lib/gcc/pic32mx/8.3.1/../../../../pic32mx/lib/fpu64/libc-musl.a(__fmt_fp.o)
 .rodata.cst8   0x000000009d047e30       0x20 /opt/microchip/xc32/v4.35/bin/bin/../../lib/gcc/pic32mx/8.3.1/../../../../pic32mx/lib/fpu64/libm-musl.a(fma.o)

.text           0x000000009d047e50       0x20
 .text          0x000000009d047e50       0x20 /opt/microchip/xc32/v4.35/bin/bin/../../lib/gcc/pic32mx/8.3.1/../../../../pic32mx/lib/fpu64/libpic32.a(pic32_data_init_copy.o)
                0x000000009d047e50                __dinit_copy_needed
                0x000000009d047e50                __dinit_copy

.rodata         0x000000009d047e70       0x1c
 .rodata        0x000000009d047e70       0x1c build/default/production/_ext/1171490990/tasks.o

.text.tolower   0x000000009d047e8c       0x1c
 .text.tolower  0x000000009d047e8c       0x1c /opt/microchip/xc32/v4.35/bin/bin/../../lib/gcc/pic32mx/8.3.1/../../../../pic32mx/lib/fpu64/libc-musl.a(tolower.o)
                0x000000009d047e8c                tolower

.text.__tolower_l
                0x000000009d047ea8       0x1c
 .text.__tolower_l
                0x000000009d047ea8       0x1c /opt/microchip/xc32/v4.35/bin/bin/../../lib/gcc/pic32mx/8.3.1/../../../../pic32mx/lib/fpu64/libc-musl.a(tolower.o)
                0x000000009d047ea8                __tolower_l
                0x000000009d047ea8                tolower_l

.text.toupper   0x000000009d047ec4       0x1c
 .text.toupper  0x000000009d047ec4       0x1c /opt/microchip/xc32/v4.35/bin/bin/../../lib/gcc/pic32mx/8.3.1/../../../../pic32mx/lib/fpu64/libc-musl.a(toupper.o)
                0x000000009d047ec4                toupper

.text.__toupper_l
                0x000000009d047ee0       0x1c
 .text.__toupper_l
                0x000000009d047ee0       0x1c /opt/microchip/xc32/v4.35/bin/bin/../../lib/gcc/pic32mx/8.3.1/../../../../pic32mx/lib/fpu64/libc-musl.a(toupper.o)
                0x000000009d047ee0                toupper_l
                0x000000009d047ee0                __toupper_l

.MIPS.abiflags  0x000000009d047f00       0x18
 .MIPS.abiflags
                0x000000009d047f00       0x18 /opt/microchip/xc32/v4.35/bin/bin/../../lib/gcc/pic32mx/8.3.1/../../../../pic32mx/lib/fpu64/debug-exception-return.o

.text           0x000000009d047f18       0x18
 .text          0x000000009d047f18       0x18 /opt/microchip/xc32/v4.35/bin/bin/../../lib/gcc/pic32mx/8.3.1/../../../../pic32mx/lib/fpu64/libpic32.a(default-nmi-handler.o)
                0x000000009d047f18                _nmi_handler

.rodata         0x000000009d047f30       0x18
 .rodata        0x000000009d047f30       0x18 /opt/microchip/xc32/v4.35/bin/bin/../../lib/gcc/pic32mx/8.3.1/../../../../pic32mx/lib/fpu64/libc-musl.a(__printf_core.o)

.rodata.cst8    0x000000009d047f48       0x18
 .rodata.cst8   0x000000009d047f48       0x18 /opt/microchip/xc32/v4.35/bin/bin/../../lib/gcc/pic32mx/8.3.1/../../../../pic32mx/lib/fpu64/libm-musl.a(floor.o)

.text           0x000000009d047f60       0x18
 .text          0x000000009d047f60       0x18 /opt/microchip/xc32/v4.35/bin/bin/../../lib/gcc/pic32mx/8.3.1/../../../../pic32mx/lib/fpu64/libpic32.a(pic32_data_init_clear.o)
                0x000000009d047f60                __dinit_clear
                0x000000009d047f60                __dinit_clear_needed

.rodata         0x000000009d047f78       0x24
 .rodata        0x000000009d047f78       0x14 /opt/microchip/xc32/v4.35/bin/bin/../../lib/gcc/pic32mx/8.3.1/../../../../pic32mx/lib/fpu64/libpic32.a(pic32_data_init_core.o)
 .rodata        0x000000009d047f8c       0x10 build/default/production/_ext/651226651/gap.o

.rodata.str1.4  0x000000009d047f9c       0x20
 .rodata.str1.4
                0x000000009d047f9c       0x10 /opt/microchip/xc32/v4.35/bin/bin/../../lib/gcc/pic32mx/8.3.1/../../../../pic32mx/lib/fpu64/libc-musl.a(__fmt_a.o)
 .rodata.str1.4
                0x000000009d047fac       0x10 /opt/microchip/xc32/v4.35/bin/bin/../../lib/gcc/pic32mx/8.3.1/../../../../pic32mx/lib/fpu64/libc-musl.a(__fmt_fp.o)

.rodata.cst8    0x000000009d047fc0       0x10
 .rodata.cst8   0x000000009d047fc0       0x10 /opt/microchip/xc32/v4.35/bin/bin/../../lib/gcc/pic32mx/8.3.1/../../../../pic32mx/lib/fpu64/libm-musl.a(scalbn.o)

.rodata         0x000000009d047fd0       0x18
 .rodata        0x000000009d047fd0        0xc build/default/production/_ext/1360937237/app.o
 .rodata        0x000000009d047fdc        0xc /opt/microchip/xc32/v4.35/bin/bin/../../lib/gcc/pic32mx/8.3.1/../../../../pic32mx/lib/fpu64/libc-musl.a(__secs_to_tm.o)

.rodata.str1.4  0x000000009d047fe8        0xc
 .rodata.str1.4
                0x000000009d047fe8        0xc /opt/microchip/xc32/v4.35/bin/bin/../../lib/gcc/pic32mx/8.3.1/../../../../pic32mx/lib/fpu64/libc-musl.a(__printf_core.o)

.rodata         0x000000009d0000f8        0x8
 .rodata        0x000000009d0000f8        0x8 build/default/production/_ext/404212886/FreeRTOS_tasks.o

.rodata         0x000000009d047ff4        0x8
 .rodata        0x000000009d047ff4        0x8 build/default/production/_ext/1954180691/wdrv_winc_wps.o

.text._on_reset
                0x000000009d047ffc        0x8
 .text._on_reset
                0x000000009d047ffc        0x8 /opt/microchip/xc32/v4.35/bin/bin/../../lib/gcc/pic32mx/8.3.1/../../../../pic32mx/lib/fpu64/libpic32.a(default-on-reset.o)
                0x000000009d047ffc                _on_reset

.text._on_bootstrap
                0x000000009d048004        0x8
 .text._on_bootstrap
                0x000000009d048004        0x8 /opt/microchip/xc32/v4.35/bin/bin/../../lib/gcc/pic32mx/8.3.1/../../../../pic32mx/lib/fpu64/libpic32.a(default-on-bootstrap.o)
                0x000000009d048004                _on_bootstrap

.text.__dummy_fmt3
                0x000000009d04800c        0x8
 .text.__dummy_fmt3
                0x000000009d04800c        0x8 /opt/microchip/xc32/v4.35/bin/bin/../../lib/gcc/pic32mx/8.3.1/../../../../pic32mx/lib/fpu64/libc-musl.a(__printf_core.o)

.text.__dummy_fmt4
                0x000000009d048014        0x8
 .text.__dummy_fmt4
                0x000000009d048014        0x8 /opt/microchip/xc32/v4.35/bin/bin/../../lib/gcc/pic32mx/8.3.1/../../../../pic32mx/lib/fpu64/libc-musl.a(__printf_core.o)

.text.__dummy_fmts
                0x000000009d04801c        0x8
 .text.__dummy_fmts
                0x000000009d04801c        0x8 /opt/microchip/xc32/v4.35/bin/bin/../../lib/gcc/pic32mx/8.3.1/../../../../pic32mx/lib/fpu64/libc-musl.a(__printf_core.o)

.rodata         0x000000009d047d74        0x4
 .rodata        0x000000009d047d74        0x4 build/default/production/_ext/951553246/port.o
                0x000000009d047d74                xISRStackTop

.rodata.str1.4  0x000000009d047efc        0x4
 .rodata.str1.4
                0x000000009d047efc        0x4 /opt/microchip/xc32/v4.35/bin/bin/../../lib/gcc/pic32mx/8.3.1/../../../../pic32mx/lib/fpu64/libc-musl.a(gmtime_r.o)

.rodata.str1.4  0x000000009d047fbc        0x4
 .rodata.str1.4
                0x000000009d047fbc        0x4 /opt/microchip/xc32/v4.35/bin/bin/../../lib/gcc/pic32mx/8.3.1/../../../../pic32mx/lib/fpu64/libc-musl.a(mktime.o)

.text%z284      0x0000000000000000        0x0
 .text          0x0000000000000000        0x0 /opt/microchip/xc32/v4.35/bin/bin/../../lib/gcc/pic32mx/8.3.1/../../../../pic32mx/lib/fpu64/libpic32.a(errno.o)

.text%z285      0x0000000000000000        0x0
 .text          0x0000000000000000        0x0 /opt/microchip/xc32/v4.35/bin/bin/../../lib/gcc/pic32mx/8.3.1/../../../../pic32mx/lib/fpu64/libm-musl.a(scalbn.o)

.text%z286      0x0000000000000000        0x0
 .text          0x0000000000000000        0x0 /opt/microchip/xc32/v4.35/bin/bin/../../lib/gcc/pic32mx/8.3.1/../../../../pic32mx/lib/fpu64/libm-musl.a(fma.o)

.text%z287      0x0000000000000000        0x0
 .text          0x0000000000000000        0x0 /opt/microchip/xc32/v4.35/bin/bin/../../lib/gcc/pic32mx/8.3.1/../../../../pic32mx/lib/fpu64/libm-musl.a(floor.o)

.text%z288      0x0000000000000000        0x0
 .text          0x0000000000000000        0x0 /opt/microchip/xc32/v4.35/bin/bin/../../lib/gcc/pic32mx/8.3.1/../../../../pic32mx/lib/fpu64/libc-musl.a(stpcpy.o)

.text%z289      0x0000000000000000        0x0
 .text          0x0000000000000000        0x0 /opt/microchip/xc32/v4.35/bin/bin/../../lib/gcc/pic32mx/8.3.1/../../../../pic32mx/lib/fpu64/libc-musl.a(__cvt_u.o)

.text%z290      0x0000000000000000        0x0
 .text          0x0000000000000000        0x0 /opt/microchip/xc32/v4.35/bin/bin/../../lib/gcc/pic32mx/8.3.1/../../../../pic32mx/lib/fpu64/libc-musl.a(toupper.o)

.text%z291      0x0000000000000000        0x0
 .text          0x0000000000000000        0x0 /opt/microchip/xc32/v4.35/bin/bin/../../lib/gcc/pic32mx/8.3.1/../../../../pic32mx/lib/fpu64/libc-musl.a(strcpy.o)

.text%z292      0x0000000000000000        0x0
 .text          0x0000000000000000        0x0 /opt/microchip/xc32/v4.35/bin/bin/../../lib/gcc/pic32mx/8.3.1/../../../../pic32mx/lib/fpu64/libc-musl.a(__fmt_x.o)

.text%z293      0x0000000000000000        0x0
 .text          0x0000000000000000        0x0 /opt/microchip/xc32/v4.35/bin/bin/../../lib/gcc/pic32mx/8.3.1/../../../../pic32mx/lib/fpu64/libc-musl.a(__fmt_u.o)

.text%z294      0x0000000000000000        0x0
 .text          0x0000000000000000        0x0 /opt/microchip/xc32/v4.35/bin/bin/../../lib/gcc/pic32mx/8.3.1/../../../../pic32mx/lib/fpu64/libc-musl.a(__fmt_s.o)

.text%z295      0x0000000000000000        0x0
 .text          0x0000000000000000        0x0 /opt/microchip/xc32/v4.35/bin/bin/../../lib/gcc/pic32mx/8.3.1/../../../../pic32mx/lib/fpu64/libc-musl.a(__fmt_o.o)

.text%z296      0x0000000000000000        0x0
 .text          0x0000000000000000        0x0 /opt/microchip/xc32/v4.35/bin/bin/../../lib/gcc/pic32mx/8.3.1/../../../../pic32mx/lib/fpu64/libc-musl.a(__fmt_fp.o)

.text%z297      0x0000000000000000        0x0
 .text          0x0000000000000000        0x0 /opt/microchip/xc32/v4.35/bin/bin/../../lib/gcc/pic32mx/8.3.1/../../../../pic32mx/lib/fpu64/libc-musl.a(__fmt_d.o)

.text%z298      0x0000000000000000        0x0
 .text          0x0000000000000000        0x0 /opt/microchip/xc32/v4.35/bin/bin/../../lib/gcc/pic32mx/8.3.1/../../../../pic32mx/lib/fpu64/libc-musl.a(__fmt_a.o)

.text%z299      0x0000000000000000        0x0
 .text          0x0000000000000000        0x0 /opt/microchip/xc32/v4.35/bin/bin/../../lib/gcc/pic32mx/8.3.1/../../../../pic32mx/lib/fpu64/libc-musl.a(tolower.o)

.text%z300      0x0000000000000000        0x0
 .text          0x0000000000000000        0x0 /opt/microchip/xc32/v4.35/bin/bin/../../lib/gcc/pic32mx/8.3.1/../../../../pic32mx/lib/fpu64/libc-musl.a(__month_to_secs.o)

.text%z301      0x0000000000000000        0x0
 .text          0x0000000000000000        0x0 /opt/microchip/xc32/v4.35/bin/bin/../../lib/gcc/pic32mx/8.3.1/../../../../pic32mx/lib/fpu64/libc-musl.a(atoi.o)

.text%z302      0x0000000000000000        0x0
 .text          0x0000000000000000        0x0 /opt/microchip/xc32/v4.35/bin/bin/../../lib/gcc/pic32mx/8.3.1/../../../../pic32mx/lib/fpu64/libc-musl.a(__printf_core.o)

.text%z303      0x0000000000000000        0x0
 .text          0x0000000000000000        0x0 /opt/microchip/xc32/v4.35/bin/bin/../../lib/gcc/pic32mx/8.3.1/../../../../pic32mx/lib/fpu64/libc-musl.a(__pop_ptr.o)

.text%z304      0x0000000000000000        0x0
 .text          0x0000000000000000        0x0 /opt/microchip/xc32/v4.35/bin/bin/../../lib/gcc/pic32mx/8.3.1/../../../../pic32mx/lib/fpu64/libc-musl.a(__pop_int.o)

.text%z305      0x0000000000000000        0x0
 .text          0x0000000000000000        0x0 /opt/microchip/xc32/v4.35/bin/bin/../../lib/gcc/pic32mx/8.3.1/../../../../pic32mx/lib/fpu64/libc-musl.a(__pop_float.o)

.text%z306      0x0000000000000000        0x0
 .text          0x0000000000000000        0x0 /opt/microchip/xc32/v4.35/bin/bin/../../lib/gcc/pic32mx/8.3.1/../../../../pic32mx/lib/fpu64/libc-musl.a(__io_fmt_needed.o)

.text%z307      0x0000000000000000        0x0
 .text          0x0000000000000000        0x0 /opt/microchip/xc32/v4.35/bin/bin/../../lib/gcc/pic32mx/8.3.1/../../../../pic32mx/lib/fpu64/libc-musl.a(__secs_to_tm.o)

.text%z308      0x0000000000000000        0x0
 .text          0x0000000000000000        0x0 /opt/microchip/xc32/v4.35/bin/bin/../../lib/gcc/pic32mx/8.3.1/../../../../pic32mx/lib/fpu64/libc-musl.a(__year_to_secs.o)

.text%z309      0x0000000000000000        0x0
 .text          0x0000000000000000        0x0 /opt/microchip/xc32/v4.35/bin/bin/../../lib/gcc/pic32mx/8.3.1/../../../../pic32mx/lib/fpu64/libc-musl.a(__tm_to_secs.o)

.text%z310      0x0000000000000000        0x0
 .text          0x0000000000000000        0x0 /opt/microchip/xc32/v4.35/bin/bin/../../lib/gcc/pic32mx/8.3.1/../../../../pic32mx/lib/fpu64/libc-musl.a(memchr.o)

.text%z311      0x0000000000000000        0x0
 .text          0x0000000000000000        0x0 /opt/microchip/xc32/v4.35/bin/bin/../../lib/gcc/pic32mx/8.3.1/../../../../pic32mx/lib/fpu64/libc-musl.a(vfprintf.o)

.text%z312      0x0000000000000000        0x0
 .text          0x0000000000000000        0x0 /opt/microchip/xc32/v4.35/bin/bin/../../lib/gcc/pic32mx/8.3.1/../../../../pic32mx/lib/fpu64/libc-musl.a(mktime.o)

.text%z313      0x0000000000000000        0x0
 .text          0x0000000000000000        0x0 /opt/microchip/xc32/v4.35/bin/bin/../../lib/gcc/pic32mx/8.3.1/../../../../pic32mx/lib/fpu64/libc-musl.a(gmtime_r.o)

.text%z314      0x0000000000000000        0x0
 .text          0x0000000000000000        0x0 /opt/microchip/xc32/v4.35/bin/bin/../../lib/gcc/pic32mx/8.3.1/../../../../pic32mx/lib/fpu64/libc-musl.a(gmtime.o)

.text%z315      0x0000000000000000        0x0
 .text          0x0000000000000000        0x0 /opt/microchip/xc32/v4.35/bin/bin/../../lib/gcc/pic32mx/8.3.1/../../../../pic32mx/lib/fpu64/libc-musl.a(strnlen.o)

.text%z316      0x0000000000000000        0x0
 .text          0x0000000000000000        0x0 /opt/microchip/xc32/v4.35/bin/bin/../../lib/gcc/pic32mx/8.3.1/../../../../pic32mx/lib/fpu64/libc-musl.a(strchrnul.o)

.text%z317      0x0000000000000000        0x0
 .text          0x0000000000000000        0x0 /opt/microchip/xc32/v4.35/bin/bin/../../lib/gcc/pic32mx/8.3.1/../../../../pic32mx/lib/fpu64/libc-musl.a(strchr.o)

.text%z318      0x0000000000000000        0x0
 .text          0x0000000000000000        0x0 /opt/microchip/xc32/v4.35/bin/bin/../../lib/gcc/pic32mx/8.3.1/../../../../pic32mx/lib/fpu64/libc-musl.a(vsprintf.o)

.text%z319      0x0000000000000000        0x0
 .text          0x0000000000000000        0x0 /opt/microchip/xc32/v4.35/bin/bin/../../lib/gcc/pic32mx/8.3.1/../../../../pic32mx/lib/fpu64/libc-musl.a(sprintf.o)

.text%z320      0x0000000000000000        0x0
 .text          0x0000000000000000        0x0 /opt/microchip/xc32/v4.35/bin/bin/../../lib/gcc/pic32mx/8.3.1/../../../../pic32mx/lib/fpu64/libc-musl.a(vsnprintf.o)

.text%z321      0x0000000000000000        0x0
 .text          0x0000000000000000        0x0 /opt/microchip/xc32/v4.35/bin/bin/../../lib/gcc/pic32mx/8.3.1/../../../../pic32mx/lib/fpu64/libpic32.a(defaultinterrupt.o)

.text%z322      0x0000000000000000        0x0
 .text          0x0000000000000000        0x0 /opt/microchip/xc32/v4.35/bin/bin/../../lib/gcc/pic32mx/8.3.1/../../../../pic32mx/lib/fpu64/libpic32.a(simple-tlb-refill-exception.o)

.text%z323      0x0000000000000000        0x0
 .text          0x0000000000000000        0x0 /opt/microchip/xc32/v4.35/bin/bin/../../lib/gcc/pic32mx/8.3.1/../../../../pic32mx/lib/fpu64/libpic32.a(cache-err-exception.o)

.text%z324      0x0000000000000000        0x0
 .text          0x0000000000000000        0x0 /opt/microchip/xc32/v4.35/bin/bin/../../lib/gcc/pic32mx/8.3.1/../../../../pic32mx/lib/fpu64/libpic32.a(general-exception.o)

.text%z325      0x0000000000000000        0x0
 .text          0x0000000000000000        0x0 /opt/microchip/xc32/v4.35/bin/bin/../../lib/gcc/pic32mx/8.3.1/../../../../pic32mx/lib/fpu64/libpic32.a(pic32_init_tlb_ebi_sqi.o)

.text%z326      0x0000000000000000        0x0
 .text          0x0000000000000000        0x0 /opt/microchip/xc32/v4.35/bin/bin/../../lib/gcc/pic32mx/8.3.1/../../../../pic32mx/lib/fpu64/libpic32.a(pic32_init_cache.o)

.text%z327      0x0000000000000000        0x0
 .text          0x0000000000000000        0x0 /opt/microchip/xc32/v4.35/bin/bin/../../lib/gcc/pic32mx/8.3.1/../../../../pic32mx/lib/fpu64/libpic32.a(default-on-bootstrap.o)

.text%z328      0x0000000000000000        0x0
 .text          0x0000000000000000        0x0 /opt/microchip/xc32/v4.35/bin/bin/../../lib/gcc/pic32mx/8.3.1/../../../../pic32mx/lib/fpu64/libpic32.a(default-on-reset.o)

.text%z329      0x0000000000000000        0x0
 .text          0x0000000000000000        0x0 /tmp/ccmzy7S2.o

.text%z330      0x0000000000000000        0x0
 .text          0x0000000000000000        0x0 /tmp/ccNcFTSD.o

.text%z331      0x0000000000000000        0x0
 .text          0x0000000000000000        0x0 /tmp/cc6wiA0f.o

.text%z332      0x0000000000000000        0x0
 .text          0x0000000000000000        0x0 /tmp/ccyN9zno.o

.text%z333      0x0000000000000000        0x0
 .text          0x0000000000000000        0x0 build/default/production/_ext/404212886/timers.o

.text%z334      0x0000000000000000        0x0
 .text          0x0000000000000000        0x0 build/default/production/_ext/404212886/croutine.o

.text%z335      0x0000000000000000        0x0
 .text          0x0000000000000000        0x0 build/default/production/_ext/1171490990/interrupts_a.o

.text%z336      0x0000000000000000        0x0
 .text          0x0000000000000000        0x0 /opt/microchip/xc32/v4.35/bin/bin/../../lib/gcc/pic32mx/8.3.1/../../../../pic32mx/lib/fpu64/debug-exception-return.o
